(lp0
(lp1
F0.0
aF0.1
aF0.2
aF0.3
aF0.4
aF0.5
aF0.6
aF0.7
aF0.8
aF0.9
aF1.0
aF1.1
aF1.2
aF1.3
aF1.4
aF1.5
aF1.6
aF1.7
aF1.8
aF1.9
aF2.0
aF2.1
aF2.2
aF2.3
aF2.4
aF2.5
aF2.6
aF2.7
aF2.8
aF2.9
aF3.0
aF3.1
aF3.2
aF3.3
aF3.4
aF3.5
aF3.6
aF3.7
aF3.8
aF3.9
aF4.0
aF4.1
aF4.2
aF4.3
aF4.4
aF4.5
aF4.6
aF4.7
aF4.8
aF4.9
aF5.0
aF5.1
aF5.2
aF5.3
aF5.4
aF5.5
aF5.6
aF5.7
aF5.8
aF5.9
aF6.0
aF6.1
aF6.2
aF6.3
aF6.4
aF6.5
aF6.6
aF6.7
aF6.8
aF6.9
aF7.0
aF7.1
aF7.2
aF7.3
aF7.4
aF7.5
aF7.6
aF7.7
aF7.8
aF7.9
aF8.0
aF8.1
aF8.2
aF8.3
aF8.4
aF8.5
aF8.6
aF8.7
aF8.8
aF8.9
aF9.0
aF9.1
aF9.2
aF9.3
aF9.4
aF9.5
aF9.6
aF9.7
aF9.8
aF9.9
aF10.0
aF10.1
aF10.2
aF10.3
aF10.4
aF10.5
aF10.6
aF10.7
aF10.8
aF10.9
aF11.0
aF11.1
aF11.2
aF11.3
aF11.4
aF11.5
aF11.6
aF11.7
aF11.8
aF11.9
aF12.0
aF12.1
aF12.2
aF12.3
aF12.4
aF12.5
aF12.6
aF12.7
aF12.8
aF12.9
aF13.0
aF13.1
aF13.2
aF13.3
aF13.4
aF13.5
aF13.6
aF13.7
aF13.8
aF13.9
aF14.0
aF14.1
aF14.2
aF14.3
aF14.4
aF14.5
aF14.6
aF14.7
aF14.8
aF14.9
aF15.0
aF15.1
aF15.2
aF15.3
aF15.4
aF15.5
aF15.6
aF15.7
aF15.8
aF15.9
aF16.0
aF16.1
aF16.2
aF16.3
aF16.4
aF16.5
aF16.6
aF16.7
aF16.8
aF16.9
aF17.0
aF17.1
aF17.2
aF17.3
aF17.4
aF17.5
aF17.6
aF17.7
aF17.8
aF17.9
aF18.0
aF18.1
aF18.2
aF18.3
aF18.4
aF18.5
aF18.6
aF18.7
aF18.8
aF18.9
aF19.0
aF19.1
aF19.2
aF19.3
aF19.4
aF19.5
aF19.6
aF19.7
aF19.8
aF19.9
aF20.0
aF20.1
aF20.2
aF20.3
aF20.4
aF20.5
aF20.6
aF20.7
aF20.8
aF20.9
aF21.0
aF21.1
aF21.2
aF21.3
aF21.4
aF21.5
aF21.6
aF21.7
aF21.8
aF21.9
aF22.0
aF22.1
aF22.2
aF22.3
aF22.4
aF22.5
aF22.6
aF22.7
aF22.8
aF22.9
aF23.0
aF23.1
aF23.2
aF23.3
aF23.4
aF23.5
aF23.6
aF23.7
aF23.8
aF23.9
aa(lp2
(lp3
F0.23581669266770672
aF0.1373427876287764
aa(lp4
F0.24885157699443414
aF0.14439279029160412
aa(lp5
F0.24724821897262844
aF0.1441684093766925
aa(lp6
F0.24329317269076306
aF0.14512441147952604
aa(lp7
F0.24627243125904485
aF0.14474201075575546
aa(lp8
F0.24776369612856097
aF0.14601996614168453
aa(lp9
F0.2427268134247564
aF0.140163841979557
aa(lp10
F0.24694614003590665
aF0.14237999575086488
aa(lp11
F0.24708672752808988
aF0.14531793756442118
aa(lp12
F0.24814741474147414
aF0.144934124661159
aa(lp13
F0.24418781725888325
aF0.14546912181297214
aa(lp14
F0.2442866473149492
aF0.14436676365975054
aa(lp15
F0.24580523364485982
aF0.1449664541273675
aa(lp16
F0.24449056603773583
aF0.14754449746826825
aa(lp17
F0.24267423423423426
aF0.14436618243718993
aa(lp18
F0.24899964311206282
aF0.14507957043080916
aa(lp19
F0.24836
aF0.14663382358279684
aa(lp20
F0.24400428265524626
aF0.14791505656559556
aa(lp21
F0.24630524079320115
aF0.14978829183444994
aa(lp22
F0.24511344238975818
aF0.15113674901269553
aa(lp23
F0.24874886323889472
aF0.14985072311325917
aa(lp24
F0.24589762968052215
aF0.14783095609029961
aa(lp25
F0.24688310787374262
aF0.1505474852606461
aa(lp26
F0.247737897648686
aF0.14861235388845115
aa(lp27
F0.24674430465827948
aF0.1493144216156497
aa(lp28
F0.24663611676849967
aF0.14638290825523909
aa(lp29
F0.24970503355704698
aF0.1569550299014929
aa(lp30
F0.25154239054899236
aF0.1559819093370846
aa(lp31
F0.2514713242961418
aF0.1552840558418592
aa(lp32
F0.246947
aF0.1488383770352688
aa(lp33
F0.2534050414364641
aF0.1578464021191715
aa(lp34
F0.2542172730363822
aF0.15652961311896668
aa(lp35
F0.25392396079756674
aF0.16158377515466002
aa(lp36
F0.24707525807525807
aF0.1577063900425455
aa(lp37
F0.2495288558893014
aF0.1598245411622962
aa(lp38
F0.25119611074489123
aF0.15880681904287336
aa(lp39
F0.25420858283433134
aF0.16269955592141583
aa(lp40
F0.2513568090787717
aF0.16052153270241812
aa(lp41
F0.24922589627567002
aF0.15749360688412797
aa(lp42
F0.2503541297412265
aF0.1607366985158746
aa(lp43
F0.24709772329246937
aF0.16161709284754205
aa(lp44
F0.2465271851342051
aF0.15803831465587165
aa(lp45
F0.25693610443146686
aF0.16650903622985122
aa(lp46
F0.2579712328767123
aF0.16957804633992715
aa(lp47
F0.25236464285714283
aF0.168280358095993
aa(lp48
F0.25290529487731384
aF0.17232550520367174
aa(lp49
F0.25185756897837436
aF0.16816123148031595
aa(lp50
F0.253662077104642
aF0.1740564451370749
aa(lp51
F0.24867192660550458
aF0.168721292986955
aa(lp52
F0.2547924248050501
aF0.17366019167161267
aa(lp53
F0.2537115009746589
aF0.17328970867338478
aa(lp54
F0.2530492513790386
aF0.17461699158424432
aa(lp55
F0.24801963048498846
aF0.17337513664002172
aa(lp56
F0.2538368908578333
aF0.18351211345842544
aa(lp57
F0.2597413441955193
aF0.18788181310121246
aa(lp58
F0.2558472385428907
aF0.1815920455641154
aa(lp59
F0.25386230706742485
aF0.1814420925889638
aa(lp60
F0.25955513784461154
aF0.18826371775358242
aa(lp61
F0.25352375
aF0.18474688998240288
aa(lp62
F0.2503531195840555
aF0.1868618227251656
aa(lp63
F0.25332743744607417
aF0.19349369577395398
aa(lp64
F0.2499095409540954
aF0.18866928346227027
aa(lp65
F0.25535800267498887
aF0.19346387511384192
aa(lp66
F0.2542018867924528
aF0.1961063791314104
aa(lp67
F0.2537745721271394
aF0.19561636378309827
aa(lp68
F0.2519079812206573
aF0.19904018156414416
aa(lp69
F0.24910765432098764
aF0.201176056225628
aa(lp70
F0.25193570308416097
aF0.21009228034659905
aa(lp71
F0.25282808466701084
aF0.20798228298893717
aa(lp72
F0.2518868017795354
aF0.20427644265442055
aa(lp73
F0.253232383808096
aF0.21169707950457092
aa(lp74
F0.25165108267716535
aF0.2072868028124222
aa(lp75
F0.25291644204851754
aF0.2197614746572678
aa(lp76
F0.2508343195266272
aF0.22155648509446402
aa(lp77
F0.24717743764172337
aF0.22089094521467417
aa(lp78
F0.2606017094017094
aF0.227604378043824
aa(lp79
F0.24732088285229203
aF0.22588957035494825
aa(lp80
F0.24706540954625808
aF0.23073152451069812
aa(lp81
F0.25568486646884275
aF0.23626311079016632
aa(lp82
F0.24963073979591835
aF0.23918642842355786
aa(lp83
F0.2521207302709069
aF0.23949672513337986
aa(lp84
F0.25002466907340554
aF0.23844068498898852
aa(lp85
F0.24468350383631712
aF0.2491741167478458
aa(lp86
F0.2485861376192868
aF0.23379243357878932
aa(lp87
F0.24482962195753497
aF0.235725462676838
aa(lp88
F0.23879766141331976
aF0.2318573085555902
aa(lp89
F0.243065415821501
aF0.23615626631838588
aa(lp90
F0.24093503836317137
aF0.24037277296853202
aa(lp91
F0.24006091101694915
aF0.24245311829479682
aa(lp92
F0.24704961240310078
aF0.2461814046395138
aa(lp93
F0.2398050847457627
aF0.24243716494527204
aa(lp94
F0.2333951655281135
aF0.2438948192947603
aa(lp95
F0.2447511987213639
aF0.2511579014812012
aa(lp96
F0.24304454454454455
aF0.24627214310691636
aa(lp97
F0.23889202127659576
aF0.2524090877286812
aa(lp98
F0.23678070637849236
aF0.25377517830838014
aa(lp99
F0.2359288061336254
aF0.25613132627329893
aa(lp100
F0.23833417085427136
aF0.2555286840734414
aa(lp101
F0.23849132624510355
aF0.2651568622511135
aa(lp102
F0.23743227199136535
aF0.2635392466603607
aa(lp103
F0.23512313060817547
aF0.25738383050001945
aa(lp104
F0.24192166140904311
aF0.2678298718523948
aa(lp105
F0.24364939024390245
aF0.2674464155590004
aa(lp106
F0.23615945674044267
aF0.26697511938289015
aa(lp107
F0.24283642138697725
aF0.2734912855858922
aa(lp108
F0.24535767511177348
aF0.2681483563086183
aa(lp109
F0.2395968534906588
aF0.2705028305178731
aa(lp110
F0.24022472448490656
aF0.26865635415366823
aa(lp111
F0.24032273603082852
aF0.26931045708862034
aa(lp112
F0.23610755377688844
aF0.2754519063115368
aa(lp113
F0.2393100222717149
aF0.2673428355541765
aa(lp114
F0.23709501845018452
aF0.27377108086695034
aa(lp115
F0.235306338028169
aF0.2693731546170252
aa(lp116
F0.24468313689936536
aF0.27729652221087464
aa(lp117
F0.2366140018921476
aF0.27941472451397753
aa(lp118
F0.23678291964661335
aF0.27179471635676045
aa(lp119
F0.2384186655037069
aF0.27596463693412504
aa(lp120
F0.2389716738197425
aF0.2760664291549095
aa(lp121
F0.22978703306139972
aF0.27498471089051274
aa(lp122
F0.23994122319301034
aF0.27147324436864556
aa(lp123
F0.23678162291169452
aF0.27135362818367387
aa(lp124
F0.23719334389857372
aF0.27443303977604516
aa(lp125
F0.2337880094043887
aF0.2733770471762576
aa(lp126
F0.2377176516029355
aF0.27735626114500755
aa(lp127
F0.24085669041963578
aF0.28215449326227615
aa(lp128
F0.23836137735179272
aF0.269921254640358
aa(lp129
F0.23337602996254683
aF0.2752192589360181
aa(lp130
F0.2356230043541364
aF0.2752122133189219
aa(lp131
F0.2311842008121078
aF0.27868232172417856
aa(lp132
F0.24300074377091854
aF0.2839474834587231
aa(lp133
F0.23818169582772544
aF0.2713497036871393
aa(lp134
F0.2372413910671667
aF0.27533810983132323
aa(lp135
F0.23542833607907743
aF0.27296551147693715
aa(lp136
F0.23858603736479844
aF0.2753965380481667
aa(lp137
F0.2381327857631759
aF0.28169344874972174
aa(lp138
F0.23798690396239086
aF0.2810250877220907
aa(lp139
F0.23799057523561912
aF0.27957769956346584
aa(lp140
F0.24418246292714377
aF0.2819314429291055
aa(lp141
F0.23988550586742785
aF0.2794672526898652
aa(lp142
F0.2351937358734259
aF0.2796981448768829
aa(lp143
F0.2378805834092981
aF0.27659481303626304
aa(lp144
F0.23591109802767146
aF0.2759072448479757
aa(lp145
F0.23760011795930405
aF0.2784995881112882
aa(lp146
F0.23660282021151585
aF0.2785667544365655
aa(lp147
F0.23485414201183433
aF0.27925310113416607
aa(lp148
F0.2397538815411156
aF0.2784277674067372
aa(lp149
F0.2344199369808078
aF0.27910215872761424
aa(lp150
F0.2356765369430344
aF0.27782805409308314
aa(lp151
F0.2328827777777778
aF0.2784866799942326
aa(lp152
F0.23456045519203414
aF0.2831292463679981
aa(lp153
F0.235377648839556
aF0.2732305040013883
aa(lp154
F0.24200475435816166
aF0.28053714561508675
aa(lp155
F0.2355418410041841
aF0.2788536693324895
aa(lp156
F0.2354266007287871
aF0.28072886306732797
aa(lp157
F0.24064920212765958
aF0.2847474568899063
aa(lp158
F0.23635463917525773
aF0.28133239500201573
aa(lp159
F0.23472500000000002
aF0.28415898305989074
aa(lp160
F0.24319249512670565
aF0.28248430467156693
aa(lp161
F0.24826128266033257
aF0.2717752699849158
aa(lp162
F0.2472798547318949
aF0.2712448059254174
aa(lp163
F0.24345936912471278
aF0.26875696313481934
aa(lp164
F0.2408873269896194
aF0.2741404399441169
aa(lp165
F0.23936494571238642
aF0.27688844580739336
aa(lp166
F0.23851179245283022
aF0.274729192826779
aa(lp167
F0.23696525885558584
aF0.28034415017203645
aa(lp168
F0.2367932470949353
aF0.2773885282794783
aa(lp169
F0.23849435028248586
aF0.2788861147057716
aa(lp170
F0.23663395784543326
aF0.2877986110037586
aa(lp171
F0.2385126714717508
aF0.2885493938448558
aa(lp172
F0.23763267725871473
aF0.29101846043069174
aa(lp173
F0.23865067043048696
aF0.290893677057277
aa(lp174
F0.23086966713548993
aF0.2903574227581327
aa(lp175
F0.23373152478952292
aF0.29196607821487996
aa(lp176
F0.2353965146813082
aF0.29737464929165663
aa(lp177
F0.23670871846115413
aF0.3045407756761099
aa(lp178
F0.2348851584562284
aF0.3338430152179183
aa(lp179
F0.23511933395004625
aF0.33457540506008066
aa(lp180
F0.23975375939849622
aF0.3184685845984495
aa(lp181
F0.24020129558541267
aF0.30567747389965944
aa(lp182
F0.2442005277044855
aF0.30831043521472545
aa(lp183
F0.2416963249516441
aF0.30943961933322783
aa(lp184
F0.240207551887972
aF0.3135402265576431
aa(lp185
F0.24413766780731772
aF0.32183391726182103
aa(lp186
F0.24173108833577356
aF0.3140225174790067
aa(lp187
F0.23975442974794112
aF0.3176771905466736
aa(lp188
F0.2445303142786439
aF0.3193504184070496
aa(lp189
F0.24330212330519313
aF0.32533428843328704
aa(lp190
F0.2415114503816794
aF0.3221631133530182
aa(lp191
F0.2438610824742268
aF0.32880372439878697
aa(lp192
F0.2434355889724311
aF0.3266114451237548
aa(lp193
F0.2407628174413033
aF0.32236613952925214
aa(lp194
F0.23785276532137517
aF0.3276285312955663
aa(lp195
F0.24246159657517
aF0.33254293974489335
aa(lp196
F0.2430089980544747
aF0.33070799628211467
aa(lp197
F0.24239421740339173
aF0.34732452095792865
aa(lp198
F0.2389014874420873
aF0.3312493726458584
aa(lp199
F0.2416371989073752
aF0.3347822801445127
aa(lp200
F0.23813931965982993
aF0.33791096566295953
aa(lp201
F0.24364680527383367
aF0.3413299134485542
aa(lp202
F0.24495706130553488
aF0.3402304492293741
aa(lp203
F0.23921986334797463
aF0.33877953534236144
aa(lp204
F0.23994973743435857
aF0.3432926057037517
aa(lp205
F0.2389048572859289
aF0.34502945421939024
aa(lp206
F0.23936010808155245
aF0.3441284465646878
aa(lp207
F0.23935659107899326
aF0.34777325725844566
aa(lp208
F0.24026883910386965
aF0.35202368722890415
aa(lp209
F0.24364367816091953
aF0.35379950452899933
aa(lp210
F0.2435662533430586
aF0.35048367711925477
aa(lp211
F0.23751518026565466
aF0.3444573833941208
aa(lp212
F0.24231699346405228
aF0.3572827442432406
aa(lp213
F0.24295478131949594
aF0.3547169252587165
aa(lp214
F0.24410335195530727
aF0.3609037125005241
aa(lp215
F0.2421683737197102
aF0.3587332495836562
aa(lp216
F0.2437692878338279
aF0.36089532143171477
aa(lp217
F0.24438022034332565
aF0.3677067523217047
aa(lp218
F0.24369339164237125
aF0.35948829336218996
aa(lp219
F0.2475796875
aF0.37199467740075187
aa(lp220
F0.24216430229558936
aF0.3719230477417975
aa(lp221
F0.24219949558638085
aF0.3700201126337994
aa(lp222
F0.2458525708289612
aF0.3770832295962258
aa(lp223
F0.2459047987616099
aF0.37735818113546865
aa(lp224
F0.24441293147861928
aF0.3768158677166621
aa(lp225
F0.24502516382699868
aF0.3811535521351767
aa(lp226
F0.24299321148825065
aF0.3826613209564694
aa(lp227
F0.24291677961507183
aF0.39107195118150073
aa(lp228
F0.24588853161843513
aF0.3897788505029802
aa(lp229
F0.24284538315732465
aF0.39265806373302387
aa(lp230
F0.24593052240784938
aF0.39313053757596444
aa(lp231
F0.24700512958963283
aF0.39683748220306597
aa(lp232
F0.24690828162934988
aF0.39869161380501117
aa(lp233
F0.24634368530020703
aF0.3927772456329547
aa(lp234
F0.24594011976047903
aF0.3948800141563128
aa(lp235
F0.2500893355667225
aF0.40897458267559494
aa(lp236
F0.25035435595938
aF0.40308773623349525
aa(lp237
F0.254448595505618
aF0.41497055708342756
aa(lp238
F0.24494866133038917
aF0.4107500164935143
aa(lp239
F0.25131514324693044
aF0.4125650315978879
aa(lp240
F0.2506468493150685
aF0.41392750267432343
aa(lp241
F0.2466076369673492
aF0.4168592224008508
aa(lp242
F0.25040848214285716
aF0.4204013299853591
aaa(lp243
F0.0
aF0.1
aF0.2
aF0.3
aF0.4
aF0.5
aF0.6
aF0.7
aF0.8
aF0.9
aF1.0
aF1.1
aF1.2
aF1.3
aF1.4
aF1.5
aF1.6
aF1.7
aF1.8
aF1.9
aF2.0
aF2.1
aF2.2
aF2.3
aF2.4
aF2.5
aF2.6
aF2.7
aF2.8
aF2.9
aF3.0
aF3.1
aF3.2
aF3.3
aF3.4
aF3.5
aF3.6
aF3.7
aF3.8
aF3.9
aF4.0
aF4.1
aF4.2
aF4.3
aF4.4
aF4.5
aF4.6
aF4.7
aF4.8
aF4.9
aF5.0
aF5.1
aF5.2
aF5.3
aF5.4
aF5.5
aF5.6
aF5.7
aF5.8
aF5.9
aF6.0
aF6.1
aF6.2
aF6.3
aF6.4
aF6.5
aF6.6
aF6.7
aF6.8
aF6.9
aF7.0
aF7.1
aF7.2
aF7.3
aF7.4
aF7.5
aF7.6
aF7.7
aF7.8
aF7.9
aF8.0
aF8.1
aF8.2
aF8.3
aF8.4
aF8.5
aF8.6
aF8.7
aF8.8
aF8.9
aF9.0
aF9.1
aF9.2
aF9.3
aF9.4
aF9.5
aF9.6
aF9.7
aF9.8
aF9.9
aF10.0
aF10.1
aF10.2
aF10.3
aF10.4
aF10.5
aF10.6
aF10.7
aF10.8
aF10.9
aF11.0
aF11.1
aF11.2
aF11.3
aF11.4
aF11.5
aF11.6
aF11.7
aF11.8
aF11.9
aF12.0
aF12.1
aF12.2
aF12.3
aF12.4
aF12.5
aF12.6
aF12.7
aF12.8
aF12.9
aF13.0
aF13.1
aF13.2
aF13.3
aF13.4
aF13.5
aF13.6
aF13.7
aF13.8
aF13.9
aF14.0
aF14.1
aF14.2
aF14.3
aF14.4
aF14.5
aF14.6
aF14.7
aF14.8
aF14.9
aF15.0
aF15.1
aF15.2
aF15.3
aF15.4
aF15.5
aF15.6
aF15.7
aF15.8
aF15.9
aF16.0
aF16.1
aF16.2
aF16.3
aF16.4
aF16.5
aF16.6
aF16.7
aF16.8
aF16.9
aF17.0
aF17.1
aF17.2
aF17.3
aF17.4
aF17.5
aF17.6
aF17.7
aF17.8
aF17.9
aF18.0
aF18.1
aF18.2
aF18.3
aF18.4
aF18.5
aF18.6
aF18.7
aF18.8
aF18.9
aF19.0
aF19.1
aF19.2
aF19.3
aF19.4
aF19.5
aF19.6
aF19.7
aF19.8
aF19.9
aF20.0
aF20.1
aF20.2
aF20.3
aF20.4
aF20.5
aF20.6
aF20.7
aF20.8
aF20.9
aF21.0
aF21.1
aF21.2
aF21.3
aF21.4
aF21.5
aF21.6
aF21.7
aF21.8
aF21.9
aF22.0
aF22.1
aF22.2
aF22.3
aF22.4
aF22.5
aF22.6
aF22.7
aF22.8
aF22.9
aF23.0
aF23.1
aF23.2
aF23.3
aF23.4
aF23.5
aF23.6
aF23.7
aF23.8
aF23.9
aa(lp244
(lp245
F0.23691542553191489
aF0.140140227712989
aa(lp246
F0.24425485436893205
aF0.14253310129331204
aa(lp247
F0.2462510493179433
aF0.1437312854994732
aa(lp248
F0.2435945734411688
aF0.14119750855268032
aa(lp249
F0.24576967849223946
aF0.142825087823887
aa(lp250
F0.24192270284105452
aF0.14084020121253665
aa(lp251
F0.24628422967004415
aF0.14572415153333165
aa(lp252
F0.25079148936170215
aF0.15074508443358417
aa(lp253
F0.2520252897787144
aF0.14969728221849946
aa(lp254
F0.2472323850039883
aF0.14510035127557164
aa(lp255
F0.24978814209046768
aF0.14969613339776536
aa(lp256
F0.24484886392647434
aF0.14507010257015446
aa(lp257
F0.24639367446644383
aF0.14662465928692262
aa(lp258
F0.24096234827842458
aF0.1440521429560233
aa(lp259
F0.24620345879959307
aF0.1400259008938331
aa(lp260
F0.25305985736118186
aF0.14957054014704144
aa(lp261
F0.2526302878598248
aF0.15009542861235892
aa(lp262
F0.24979852398523986
aF0.14647982815690347
aa(lp263
F0.24583009341075485
aF0.14713230376545341
aa(lp264
F0.2520874562718641
aF0.15012508105771522
aa(lp265
F0.24905431921512325
aF0.15059450773855995
aa(lp266
F0.24592418593089732
aF0.14458734975707063
aa(lp267
F0.24809181388405077
aF0.14789802420967674
aa(lp268
F0.25213009708737866
aF0.14962928558483335
aa(lp269
F0.25036055582642613
aF0.14922054962574782
aa(lp270
F0.2515349291646312
aF0.15256388880528227
aa(lp271
F0.24951179018286815
aF0.14614965412641595
aa(lp272
F0.2528849514563107
aF0.1523457700929292
aa(lp273
F0.25138123456790123
aF0.1518025353027205
aa(lp274
F0.25657085020242915
aF0.15475869479327287
aa(lp275
F0.25333108758421563
aF0.1533271989748836
aa(lp276
F0.2499233150750179
aF0.1537959297897038
aa(lp277
F0.24968773674242425
aF0.1535680127210186
aa(lp278
F0.25756226053639847
aF0.15832514245525117
aa(lp279
F0.27817622436165756
aF0.17594636936889063
aa(lp280
F0.29805068880254326
aF0.19099868182432997
aa(lp281
F0.26069166492584084
aF0.1599496714209778
aa(lp282
F0.25920665299612666
aF0.16121282126050715
aa(lp283
F0.24835195139051183
aF0.1552894249700483
aa(lp284
F0.25367511067388093
aF0.16137168316720418
aa(lp285
F0.2546621396235406
aF0.16221481899305623
aa(lp286
F0.2505163975782038
aF0.16316607734113148
aa(lp287
F0.2482861562258314
aF0.15856700863217837
aa(lp288
F0.25432666132906323
aF0.16335340462179077
aa(lp289
F0.254390779363337
aF0.1647449517584356
aa(lp290
F0.2563453706217757
aF0.16575659553950686
aa(lp291
F0.2549369924390927
aF0.1645966828879937
aa(lp292
F0.2549282560706402
aF0.16446504867226908
aa(lp293
F0.2532914746543779
aF0.16619722278635862
aa(lp294
F0.25678798283261806
aF0.17335927724924266
aa(lp295
F0.25561056863871334
aF0.1752715395936202
aa(lp296
F0.25102824536376606
aF0.16432659578098482
aa(lp297
F0.2527031344183243
aF0.17222264808887028
aa(lp298
F0.2509895320197045
aF0.17202268102017135
aa(lp299
F0.2514343905472637
aF0.1747187619342047
aa(lp300
F0.2540893316195373
aF0.1742769967776968
aa(lp301
F0.2519081987970877
aF0.1754565431561473
aa(lp302
F0.25452648897663704
aF0.18043448003580806
aa(lp303
F0.25629761904761905
aF0.18036959954698428
aa(lp304
F0.2527007729112992
aF0.18375050291814687
aa(lp305
F0.2524086589229145
aF0.18440703844052456
aa(lp306
F0.2529244875943905
aF0.18137838954822058
aa(lp307
F0.24822769121813032
aF0.18231997909355024
aa(lp308
F0.25006664198445017
aF0.18710580687035996
aa(lp309
F0.24955384021613278
aF0.19174621080688706
aa(lp310
F0.2498512996941896
aF0.19028771328235047
aa(lp311
F0.24845671521035598
aF0.1965412288071253
aa(lp312
F0.25448525798525795
aF0.19882561387149153
aa(lp313
F0.2396063579277865
aF0.19092357326230924
aa(lp314
F0.24791421362489485
aF0.19824083136177303
aa(lp315
F0.24219481571486434
aF0.19636863476292554
aa(lp316
F0.24032910321489004
aF0.20013563107115218
aa(lp317
F0.24206581196581195
aF0.2025334768932955
aa(lp318
F0.24483887688984882
aF0.2057844120534898
aa(lp319
F0.25209751773049643
aF0.21227022746046942
aa(lp320
F0.2420415349887133
aF0.21049226531479412
aa(lp321
F0.24640627885503233
aF0.21572993389018166
aa(lp322
F0.2365119161105815
aF0.21306057782836688
aa(lp323
F0.24385037174721189
aF0.21607653978599076
aa(lp324
F0.23775354523227385
aF0.21906513005690312
aa(lp325
F0.23348233046800382
aF0.21689634017736462
aa(lp326
F0.2406343137254902
aF0.2254869301391542
aa(lp327
F0.23961649580615096
aF0.21899307540440832
aa(lp328
F0.23926490384615384
aF0.22615293092599292
aa(lp329
F0.24125851703406814
aF0.23080410446784352
aa(lp330
F0.235405987394958
aF0.2347313366500957
aa(lp331
F0.24077083333333332
aF0.23582061346188926
aa(lp332
F0.23602653799758744
aF0.25129378300824057
aa(lp333
F0.23861467889908258
aF0.2714795019296884
aa(lp334
F0.24042570281124498
aF0.2840185962299463
aa(lp335
F0.23099713876967098
aF0.2727142475861403
aa(lp336
F0.23345207439198853
aF0.27297628946329977
aa(lp337
F0.23351779661016947
aF0.29662664427732344
aa(lp338
F0.22998058252427186
aF0.28285438569885646
aa(lp339
F0.23214681647940075
aF0.2864430250759655
aa(lp340
F0.22962463126843657
aF0.28502084333351885
aa(lp341
F0.2395277582572031
aF0.2832175447863148
aa(lp342
F0.22690267983074752
aF0.28305748581357104
aa(lp343
F0.23409756097560974
aF0.28927468115444277
aa(lp344
F0.23758050847457626
aF0.2924802754631606
aa(lp345
F0.22836054421768706
aF0.2871341540187449
aa(lp346
F0.23301897810218977
aF0.2975311899439435
aa(lp347
F0.2306388687454677
aF0.3023873924155864
aa(lp348
F0.23000877192982455
aF0.294113663952232
aa(lp349
F0.23756047587574353
aF0.2944394893823006
aa(lp350
F0.23713810110974104
aF0.2914220797078369
aa(lp351
F0.23358157276995306
aF0.28543054463075945
aa(lp352
F0.2367090570719603
aF0.29561718260551817
aa(lp353
F0.24104408212560385
aF0.29442044230510356
aa(lp354
F0.2339158163265306
aF0.30108930600407585
aa(lp355
F0.2304807121661721
aF0.2951486990091748
aa(lp356
F0.23274554394591274
aF0.30406363297815325
aa(lp357
F0.2335418118466899
aF0.2976933494808525
aa(lp358
F0.23843887665198238
aF0.29466996546709556
aa(lp359
F0.23866486161251504
aF0.30672971031250207
aa(lp360
F0.23556301145662847
aF0.29669769156722337
aa(lp361
F0.2349314472252448
aF0.2998908832246087
aa(lp362
F0.23217381615598887
aF0.303425553902551
aa(lp363
F0.2341690687361419
aF0.3037864571622729
aa(lp364
F0.23057127429805618
aF0.3050458455786675
aa(lp365
F0.23015294715447154
aF0.29639292350813184
aa(lp366
F0.23578328173374613
aF0.3031581530498953
aa(lp367
F0.23559778225806452
aF0.30229481609805836
aa(lp368
F0.23480552712384853
aF0.3059030080482677
aa(lp369
F0.24256876574307307
aF0.30749796162407605
aa(lp370
F0.23425649504015114
aF0.2998976508800952
aa(lp371
F0.2389010989010989
aF0.3040143168356518
aa(lp372
F0.23171041569360112
aF0.30193096355946764
aa(lp373
F0.23111220657276996
aF0.301447743760404
aa(lp374
F0.23262447844228096
aF0.3031739550890095
aa(lp375
F0.23235714285714285
aF0.29834909281816746
aa(lp376
F0.23051269035532995
aF0.30570968506490215
aa(lp377
F0.23576620076238883
aF0.2987461544627479
aa(lp378
F0.24055560131795714
aF0.29850604357812704
aa(lp379
F0.23849326599326598
aF0.3030294867655141
aa(lp380
F0.23593873438129787
aF0.2997782545318652
aa(lp381
F0.23619733555370526
aF0.30692182056877715
aa(lp382
F0.23645335968379447
aF0.3013833290522584
aa(lp383
F0.23764420062695923
aF0.3017236820265137
aa(lp384
F0.23229192291922918
aF0.3070729967426302
aa(lp385
F0.2355325292397661
aF0.29540615061747055
aa(lp386
F0.2332050829509354
aF0.29395939696589046
aa(lp387
F0.23614507398051243
aF0.3003392195767617
aa(lp388
F0.2360868800562786
aF0.29941353392926173
aa(lp389
F0.2351328413284133
aF0.3034926480836035
aa(lp390
F0.23497140788997467
aF0.30437123657282183
aa(lp391
F0.2359766917293233
aF0.3099763378581089
aa(lp392
F0.23608764940239044
aF0.30702030499157157
aa(lp393
F0.23898680097255992
aF0.30563111630834483
aa(lp394
F0.2335888216447134
aF0.3086489445500599
aa(lp395
F0.236553078202995
aF0.3020995730857583
aa(lp396
F0.23608298887122417
aF0.29795532294620924
aa(lp397
F0.234243543641713
aF0.303363545382596
aa(lp398
F0.239113427345187
aF0.2977920394377489
aa(lp399
F0.23490740147388656
aF0.3033060791357691
aa(lp400
F0.23392469977280103
aF0.3058135108508843
aa(lp401
F0.2364740813648294
aF0.3124438916232438
aa(lp402
F0.23781007751937985
aF0.30982355827454483
aa(lp403
F0.2407436134195137
aF0.307168872051687
aa(lp404
F0.23526647564469913
aF0.3107243355871538
aa(lp405
F0.23634975520195836
aF0.3066607144139301
aa(lp406
F0.23280602636534842
aF0.31097727565385014
aa(lp407
F0.23359053884711778
aF0.3116712362760889
aa(lp408
F0.23543072289156627
aF0.30927775503233046
aa(lp409
F0.2388605341246291
aF0.3233375687718117
aa(lp410
F0.23670713830465265
aF0.32046379556083093
aa(lp411
F0.23606877262257323
aF0.32702123522868415
aa(lp412
F0.23171104
aF0.32280915566698654
aa(lp413
F0.23523475709162048
aF0.33020703885752467
aa(lp414
F0.24000384985563042
aF0.3305721019979154
aa(lp415
F0.2325221408091749
aF0.327445170151361
aa(lp416
F0.23679855209316963
aF0.32838163728843056
aa(lp417
F0.2344671890303624
aF0.33502056462831126
aa(lp418
F0.2385563448498547
aF0.3360872318252181
aa(lp419
F0.23742330287206267
aF0.3385849391376274
aa(lp420
F0.23791298527443105
aF0.3455962022027402
aa(lp421
F0.23870314591700134
aF0.34599984019883473
aa(lp422
F0.23375040518638573
aF0.34062873687522593
aa(lp423
F0.2352526595744681
aF0.347617990571614
aa(lp424
F0.24114863563402889
aF0.3467445213181171
aa(lp425
F0.23900874537504205
aF0.3532595163986166
aa(lp426
F0.23895823964021842
aF0.34793722497436824
aa(lp427
F0.2388865701783911
aF0.35554174378515374
aa(lp428
F0.24165183687226155
aF0.3612056958800248
aa(lp429
F0.23804668625530523
aF0.35651912403318986
aa(lp430
F0.2356910222804718
aF0.35750366306269965
aa(lp431
F0.24067960825463447
aF0.3692485297728139
aa(lp432
F0.24263777307963355
aF0.3730531754405575
aa(lp433
F0.23753337806105335
aF0.36757777058168206
aa(lp434
F0.23435233333333333
aF0.3654660175691964
aa(lp435
F0.235188920909382
aF0.3624242555059915
aa(lp436
F0.24163769077637692
aF0.37091665604902774
aa(lp437
F0.2420235610905419
aF0.3729828533221032
aa(lp438
F0.23831217447916667
aF0.3710857057135388
aa(lp439
F0.241966796875
aF0.37518064621607206
aa(lp440
F0.2405873326803787
aF0.37470931925273643
aa(lp441
F0.24331964709874448
aF0.38238401455435483
aa(lp442
F0.24485819644653034
aF0.3844939923064479
aa(lp443
F0.24020109748224663
aF0.37790137306067817
aa(lp444
F0.24301649620587265
aF0.3836938347220254
aa(lp445
F0.24390852130325816
aF0.37708372017880337
aa(lp446
F0.24625652892561986
aF0.38800057228280427
aa(lp447
F0.24211273841961853
aF0.39358345126790245
aa(lp448
F0.2401273949579832
aF0.3947656045738745
aa(lp449
F0.2405451602460343
aF0.387521100858777
aa(lp450
F0.24337808489634746
aF0.39471722804895215
aa(lp451
F0.2447042991960853
aF0.40477422345181635
aa(lp452
F0.2377731451083388
aF0.39485957606338434
aa(lp453
F0.23879653679653678
aF0.39825884734470784
aa(lp454
F0.24457623626373626
aF0.40749530499349074
aa(lp455
F0.23830858995137763
aF0.396763849100164
aa(lp456
F0.24129111405835546
aF0.4050442640683594
aa(lp457
F0.24284334908845376
aF0.4085963796424688
aa(lp458
F0.24027753303964758
aF0.4099943040945567
aa(lp459
F0.24777456445993035
aF0.41931739544872143
aa(lp460
F0.2459162143826323
aF0.41490481584501443
aa(lp461
F0.24655083565459612
aF0.42287639158021334
aa(lp462
F0.24376225490196077
aF0.4249347771405573
aa(lp463
F0.24159092545912855
aF0.43083428603277324
aa(lp464
F0.23725333789798017
aF0.42303870921767917
aa(lp465
F0.24170250772930266
aF0.42628893786606015
aa(lp466
F0.24486284906327324
aF0.43406018181533995
aa(lp467
F0.2478033980582524
aF0.4333663778563867
aa(lp468
F0.24406205164992828
aF0.44026052822257794
aa(lp469
F0.24959183673469387
aF0.4422370297774748
aa(lp470
F0.2407078530259366
aF0.4448489522243078
aa(lp471
F0.24457188612099642
aF0.4445121773587558
aa(lp472
F0.24232703488372093
aF0.45055538072169926
aa(lp473
F0.24455535455861072
aF0.4520688296680279
aa(lp474
F0.24935805626598467
aF0.4547213975396705
aa(lp475
F0.24790076059398766
aF0.4554494049154385
aa(lp476
F0.25048418674698797
aF0.4657697132044412
aa(lp477
F0.2487908731584621
aF0.45832356047326994
aa(lp478
F0.25004509877003356
aF0.4660492814236806
aa(lp479
F0.24769929289170078
aF0.4692990174392206
aa(lp480
F0.24222214260121822
aF0.45921072004255586
aa(lp481
F0.24932241054613938
aF0.47425601435319514
aa(lp482
F0.248354463615904
aF0.47503659186868435
aa(lp483
F0.24886789612344748
aF0.47693585099116836
aa(lp484
F0.2461468085106383
aF0.467315007027687
aaa(lp485
F0.0
aF0.1
aF0.2
aF0.3
aF0.4
aF0.5
aF0.6
aF0.7
aF0.8
aF0.9
aF1.0
aF1.1
aF1.2
aF1.3
aF1.4
aF1.5
aF1.6
aF1.7
aF1.8
aF1.9
aF2.0
aF2.1
aF2.2
aF2.3
aF2.4
aF2.5
aF2.6
aF2.7
aF2.8
aF2.9
aF3.0
aF3.1
aF3.2
aF3.3
aF3.4
aF3.5
aF3.6
aF3.7
aF3.8
aF3.9
aF4.0
aF4.1
aF4.2
aF4.3
aF4.4
aF4.5
aF4.6
aF4.7
aF4.8
aF4.9
aF5.0
aF5.1
aF5.2
aF5.3
aF5.4
aF5.5
aF5.6
aF5.7
aF5.8
aF5.9
aF6.0
aF6.1
aF6.2
aF6.3
aF6.4
aF6.5
aF6.6
aF6.7
aF6.8
aF6.9
aF7.0
aF7.1
aF7.2
aF7.3
aF7.4
aF7.5
aF7.6
aF7.7
aF7.8
aF7.9
aF8.0
aF8.1
aF8.2
aF8.3
aF8.4
aF8.5
aF8.6
aF8.7
aF8.8
aF8.9
aF9.0
aF9.1
aF9.2
aF9.3
aF9.4
aF9.5
aF9.6
aF9.7
aF9.8
aF9.9
aF10.0
aF10.1
aF10.2
aF10.3
aF10.4
aF10.5
aF10.6
aF10.7
aF10.8
aF10.9
aF11.0
aF11.1
aF11.2
aF11.3
aF11.4
aF11.5
aF11.6
aF11.7
aF11.8
aF11.9
aF12.0
aF12.1
aF12.2
aF12.3
aF12.4
aF12.5
aF12.6
aF12.7
aF12.8
aF12.9
aF13.0
aF13.1
aF13.2
aF13.3
aF13.4
aF13.5
aF13.6
aF13.7
aF13.8
aF13.9
aF14.0
aF14.1
aF14.2
aF14.3
aF14.4
aF14.5
aF14.6
aF14.7
aF14.8
aF14.9
aF15.0
aF15.1
aF15.2
aF15.3
aF15.4
aF15.5
aF15.6
aF15.7
aF15.8
aF15.9
aF16.0
aF16.1
aF16.2
aF16.3
aF16.4
aF16.5
aF16.6
aF16.7
aF16.8
aF16.9
aF17.0
aF17.1
aF17.2
aF17.3
aF17.4
aF17.5
aF17.6
aF17.7
aF17.8
aF17.9
aF18.0
aF18.1
aF18.2
aF18.3
aF18.4
aF18.5
aF18.6
aF18.7
aF18.8
aF18.9
aF19.0
aF19.1
aF19.2
aF19.3
aF19.4
aF19.5
aF19.6
aF19.7
aF19.8
aF19.9
aF20.0
aF20.1
aF20.2
aF20.3
aF20.4
aF20.5
aF20.6
aF20.7
aF20.8
aF20.9
aF21.0
aF21.1
aF21.2
aF21.3
aF21.4
aF21.5
aF21.6
aF21.7
aF21.8
aF21.9
aF22.0
aF22.1
aF22.2
aF22.3
aF22.4
aF22.5
aF22.6
aF22.7
aF22.8
aF22.9
aF23.0
aF23.1
aF23.2
aF23.3
aF23.4
aF23.5
aF23.6
aF23.7
aF23.8
aF23.9
aa(lp486
(lp487
F0.23581669266770672
aF0.1373427876287764
aa(lp488
F0.24885157699443414
aF0.14439279029160412
aa(lp489
F0.24724821897262844
aF0.1441684093766925
aa(lp490
F0.24329317269076306
aF0.14512441147952604
aa(lp491
F0.24627243125904485
aF0.14474201075575546
aa(lp492
F0.24776369612856097
aF0.14601996614168453
aa(lp493
F0.2427268134247564
aF0.140163841979557
aa(lp494
F0.24694614003590665
aF0.14237999575086488
aa(lp495
F0.24708672752808988
aF0.14531793756442118
aa(lp496
F0.24814741474147414
aF0.144934124661159
aa(lp497
F0.24418781725888325
aF0.14546912181297214
aa(lp498
F0.2442866473149492
aF0.14436676365975054
aa(lp499
F0.24580523364485982
aF0.1449664541273675
aa(lp500
F0.24449056603773583
aF0.14754449746826825
aa(lp501
F0.24267423423423426
aF0.14436618243718993
aa(lp502
F0.24899964311206282
aF0.14507957043080916
aa(lp503
F0.24836
aF0.14663382358279684
aa(lp504
F0.24400428265524626
aF0.14791505656559556
aa(lp505
F0.24630524079320115
aF0.14978829183444994
aa(lp506
F0.24511344238975818
aF0.15113674901269553
aa(lp507
F0.24874886323889472
aF0.14985072311325917
aa(lp508
F0.24589762968052215
aF0.14783095609029961
aa(lp509
F0.24688310787374262
aF0.1505474852606461
aa(lp510
F0.247737897648686
aF0.14861235388845115
aa(lp511
F0.24674430465827948
aF0.1493144216156497
aa(lp512
F0.24663611676849967
aF0.14638290825523909
aa(lp513
F0.24970503355704698
aF0.1569550299014929
aa(lp514
F0.25154239054899236
aF0.1559819093370846
aa(lp515
F0.2514713242961418
aF0.1552840558418592
aa(lp516
F0.246947
aF0.1488383770352688
aa(lp517
F0.2534050414364641
aF0.1578464021191715
aa(lp518
F0.2542172730363822
aF0.15652961311896668
aa(lp519
F0.25392396079756674
aF0.16158377515466002
aa(lp520
F0.24707525807525807
aF0.1577063900425455
aa(lp521
F0.2495288558893014
aF0.1598245411622962
aa(lp522
F0.25119611074489123
aF0.15880681904287336
aa(lp523
F0.25420858283433134
aF0.16269955592141583
aa(lp524
F0.2513568090787717
aF0.16052153270241812
aa(lp525
F0.24922589627567002
aF0.15749360688412797
aa(lp526
F0.2503541297412265
aF0.1607366985158746
aa(lp527
F0.24709772329246937
aF0.16161709284754205
aa(lp528
F0.2465271851342051
aF0.15803831465587165
aa(lp529
F0.25693610443146686
aF0.16650903622985122
aa(lp530
F0.2579712328767123
aF0.16957804633992715
aa(lp531
F0.25236464285714283
aF0.168280358095993
aa(lp532
F0.25290529487731384
aF0.17232550520367174
aa(lp533
F0.25185756897837436
aF0.16816123148031595
aa(lp534
F0.253662077104642
aF0.1740564451370749
aa(lp535
F0.24867192660550458
aF0.168721292986955
aa(lp536
F0.2547924248050501
aF0.17366019167161267
aa(lp537
F0.2537115009746589
aF0.17328970867338478
aa(lp538
F0.2530492513790386
aF0.17461699158424432
aa(lp539
F0.24801963048498846
aF0.17337513664002172
aa(lp540
F0.2538368908578333
aF0.18351211345842544
aa(lp541
F0.2597413441955193
aF0.18788181310121246
aa(lp542
F0.2558472385428907
aF0.1815920455641154
aa(lp543
F0.25386230706742485
aF0.1814420925889638
aa(lp544
F0.25955513784461154
aF0.18826371775358242
aa(lp545
F0.25352375
aF0.18474688998240288
aa(lp546
F0.2503531195840555
aF0.1868618227251656
aa(lp547
F0.25332743744607417
aF0.19349369577395398
aa(lp548
F0.2499095409540954
aF0.18866928346227027
aa(lp549
F0.25535800267498887
aF0.19346387511384192
aa(lp550
F0.2542018867924528
aF0.1961063791314104
aa(lp551
F0.2537745721271394
aF0.19561636378309827
aa(lp552
F0.2519079812206573
aF0.19904018156414416
aa(lp553
F0.24910765432098764
aF0.201176056225628
aa(lp554
F0.25193570308416097
aF0.21009228034659905
aa(lp555
F0.25282808466701084
aF0.20798228298893717
aa(lp556
F0.2518868017795354
aF0.20427644265442055
aa(lp557
F0.253232383808096
aF0.21169707950457092
aa(lp558
F0.25165108267716535
aF0.2072868028124222
aa(lp559
F0.25291644204851754
aF0.2197614746572678
aa(lp560
F0.2508343195266272
aF0.22155648509446402
aa(lp561
F0.24717743764172337
aF0.22089094521467417
aa(lp562
F0.2606017094017094
aF0.227604378043824
aa(lp563
F0.24732088285229203
aF0.22588957035494825
aa(lp564
F0.24706540954625808
aF0.23073152451069812
aa(lp565
F0.25568486646884275
aF0.23626311079016632
aa(lp566
F0.24963073979591835
aF0.23918642842355786
aa(lp567
F0.2521207302709069
aF0.23949672513337986
aa(lp568
F0.25002466907340554
aF0.23844068498898852
aa(lp569
F0.24468350383631712
aF0.2491741167478458
aa(lp570
F0.2485861376192868
aF0.23379243357878932
aa(lp571
F0.24482962195753497
aF0.235725462676838
aa(lp572
F0.23879766141331976
aF0.2318573085555902
aa(lp573
F0.243065415821501
aF0.23615626631838588
aa(lp574
F0.24093503836317137
aF0.24037277296853202
aa(lp575
F0.24006091101694915
aF0.24245311829479682
aa(lp576
F0.24704961240310078
aF0.2461814046395138
aa(lp577
F0.2398050847457627
aF0.24243716494527204
aa(lp578
F0.2333951655281135
aF0.2438948192947603
aa(lp579
F0.2447511987213639
aF0.2511579014812012
aa(lp580
F0.24304454454454455
aF0.24627214310691636
aa(lp581
F0.23889202127659576
aF0.2524090877286812
aa(lp582
F0.23678070637849236
aF0.25377517830838014
aa(lp583
F0.2359288061336254
aF0.25613132627329893
aa(lp584
F0.23833417085427136
aF0.2555286840734414
aa(lp585
F0.23849132624510355
aF0.2651568622511135
aa(lp586
F0.23743227199136535
aF0.2635392466603607
aa(lp587
F0.23512313060817547
aF0.25738383050001945
aa(lp588
F0.24192166140904311
aF0.2678298718523948
aa(lp589
F0.24364939024390245
aF0.2674464155590004
aa(lp590
F0.23615945674044267
aF0.26697511938289015
aa(lp591
F0.24283642138697725
aF0.2734912855858922
aa(lp592
F0.24535767511177348
aF0.2681483563086183
aa(lp593
F0.2395968534906588
aF0.2705028305178731
aa(lp594
F0.24022472448490656
aF0.26865635415366823
aa(lp595
F0.24032273603082852
aF0.26931045708862034
aa(lp596
F0.23610755377688844
aF0.2754519063115368
aa(lp597
F0.2393100222717149
aF0.2673428355541765
aa(lp598
F0.23709501845018452
aF0.27377108086695034
aa(lp599
F0.235306338028169
aF0.2693731546170252
aa(lp600
F0.24468313689936536
aF0.27729652221087464
aa(lp601
F0.2366140018921476
aF0.27941472451397753
aa(lp602
F0.23678291964661335
aF0.27179471635676045
aa(lp603
F0.2384186655037069
aF0.27596463693412504
aa(lp604
F0.2389716738197425
aF0.2760664291549095
aa(lp605
F0.22978703306139972
aF0.27498471089051274
aa(lp606
F0.23994122319301034
aF0.27147324436864556
aa(lp607
F0.23678162291169452
aF0.27135362818367387
aa(lp608
F0.23719334389857372
aF0.27443303977604516
aa(lp609
F0.2337880094043887
aF0.2733770471762576
aa(lp610
F0.2377176516029355
aF0.27735626114500755
aa(lp611
F0.24085669041963578
aF0.28215449326227615
aa(lp612
F0.23836137735179272
aF0.269921254640358
aa(lp613
F0.23337602996254683
aF0.2752192589360181
aa(lp614
F0.2356230043541364
aF0.2752122133189219
aa(lp615
F0.2311842008121078
aF0.27868232172417856
aa(lp616
F0.24300074377091854
aF0.2839474834587231
aa(lp617
F0.23818169582772544
aF0.2713497036871393
aa(lp618
F0.2372413910671667
aF0.27533810983132323
aa(lp619
F0.23542833607907743
aF0.27296551147693715
aa(lp620
F0.23858603736479844
aF0.2753965380481667
aa(lp621
F0.2381327857631759
aF0.28169344874972174
aa(lp622
F0.23798690396239086
aF0.2810250877220907
aa(lp623
F0.23799057523561912
aF0.27957769956346584
aa(lp624
F0.24418246292714377
aF0.2819314429291055
aa(lp625
F0.23988550586742785
aF0.2794672526898652
aa(lp626
F0.2351937358734259
aF0.2796981448768829
aa(lp627
F0.2378805834092981
aF0.27659481303626304
aa(lp628
F0.23591109802767146
aF0.2759072448479757
aa(lp629
F0.23760011795930405
aF0.2784995881112882
aa(lp630
F0.23660282021151585
aF0.2785667544365655
aa(lp631
F0.23485414201183433
aF0.27925310113416607
aa(lp632
F0.2397538815411156
aF0.2784277674067372
aa(lp633
F0.2344199369808078
aF0.27910215872761424
aa(lp634
F0.2356765369430344
aF0.27782805409308314
aa(lp635
F0.2328827777777778
aF0.2784866799942326
aa(lp636
F0.23456045519203414
aF0.2831292463679981
aa(lp637
F0.235377648839556
aF0.2732305040013883
aa(lp638
F0.24200475435816166
aF0.28053714561508675
aa(lp639
F0.2355418410041841
aF0.2788536693324895
aa(lp640
F0.2354266007287871
aF0.28072886306732797
aa(lp641
F0.24064920212765958
aF0.2847474568899063
aa(lp642
F0.23635463917525773
aF0.28133239500201573
aa(lp643
F0.23472500000000002
aF0.28415898305989074
aa(lp644
F0.24319249512670565
aF0.28248430467156693
aa(lp645
F0.24826128266033257
aF0.2717752699849158
aa(lp646
F0.2472798547318949
aF0.2712448059254174
aa(lp647
F0.24345936912471278
aF0.26875696313481934
aa(lp648
F0.2408873269896194
aF0.2741404399441169
aa(lp649
F0.23936494571238642
aF0.27688844580739336
aa(lp650
F0.23851179245283022
aF0.274729192826779
aa(lp651
F0.23696525885558584
aF0.28034415017203645
aa(lp652
F0.2367932470949353
aF0.2773885282794783
aa(lp653
F0.23849435028248586
aF0.2788861147057716
aa(lp654
F0.23663395784543326
aF0.2877986110037586
aa(lp655
F0.2385126714717508
aF0.2885493938448558
aa(lp656
F0.23763267725871473
aF0.29101846043069174
aa(lp657
F0.23865067043048696
aF0.290893677057277
aa(lp658
F0.23086966713548993
aF0.2903574227581327
aa(lp659
F0.23373152478952292
aF0.29196607821487996
aa(lp660
F0.2353965146813082
aF0.29737464929165663
aa(lp661
F0.23670871846115413
aF0.3045407756761099
aa(lp662
F0.2348851584562284
aF0.3338430152179183
aa(lp663
F0.23511933395004625
aF0.33457540506008066
aa(lp664
F0.23975375939849622
aF0.3184685845984495
aa(lp665
F0.24020129558541267
aF0.30567747389965944
aa(lp666
F0.2442005277044855
aF0.30831043521472545
aa(lp667
F0.2416963249516441
aF0.30943961933322783
aa(lp668
F0.240207551887972
aF0.3135402265576431
aa(lp669
F0.24413766780731772
aF0.32183391726182103
aa(lp670
F0.24173108833577356
aF0.3140225174790067
aa(lp671
F0.23975442974794112
aF0.3176771905466736
aa(lp672
F0.2445303142786439
aF0.3193504184070496
aa(lp673
F0.24330212330519313
aF0.32533428843328704
aa(lp674
F0.2415114503816794
aF0.3221631133530182
aa(lp675
F0.2438610824742268
aF0.32880372439878697
aa(lp676
F0.2434355889724311
aF0.3266114451237548
aa(lp677
F0.2407628174413033
aF0.32236613952925214
aa(lp678
F0.23785276532137517
aF0.3276285312955663
aa(lp679
F0.24246159657517
aF0.33254293974489335
aa(lp680
F0.2430089980544747
aF0.33070799628211467
aa(lp681
F0.24239421740339173
aF0.34732452095792865
aa(lp682
F0.2389014874420873
aF0.3312493726458584
aa(lp683
F0.2416371989073752
aF0.3347822801445127
aa(lp684
F0.23813931965982993
aF0.33791096566295953
aa(lp685
F0.24364680527383367
aF0.3413299134485542
aa(lp686
F0.24495706130553488
aF0.3402304492293741
aa(lp687
F0.23921986334797463
aF0.33877953534236144
aa(lp688
F0.23994973743435857
aF0.3432926057037517
aa(lp689
F0.2389048572859289
aF0.34502945421939024
aa(lp690
F0.23936010808155245
aF0.3441284465646878
aa(lp691
F0.23935659107899326
aF0.34777325725844566
aa(lp692
F0.24026883910386965
aF0.35202368722890415
aa(lp693
F0.24364367816091953
aF0.35379950452899933
aa(lp694
F0.2435662533430586
aF0.35048367711925477
aa(lp695
F0.23751518026565466
aF0.3444573833941208
aa(lp696
F0.24231699346405228
aF0.3572827442432406
aa(lp697
F0.24295478131949594
aF0.3547169252587165
aa(lp698
F0.24410335195530727
aF0.3609037125005241
aa(lp699
F0.2421683737197102
aF0.3587332495836562
aa(lp700
F0.2437692878338279
aF0.36089532143171477
aa(lp701
F0.24438022034332565
aF0.3677067523217047
aa(lp702
F0.24369339164237125
aF0.35948829336218996
aa(lp703
F0.2475796875
aF0.37199467740075187
aa(lp704
F0.24216430229558936
aF0.3719230477417975
aa(lp705
F0.24219949558638085
aF0.3700201126337994
aa(lp706
F0.2458525708289612
aF0.3770832295962258
aa(lp707
F0.2459047987616099
aF0.37735818113546865
aa(lp708
F0.24441293147861928
aF0.3768158677166621
aa(lp709
F0.24502516382699868
aF0.3811535521351767
aa(lp710
F0.24299321148825065
aF0.3826613209564694
aa(lp711
F0.24291677961507183
aF0.39107195118150073
aa(lp712
F0.24588853161843513
aF0.3897788505029802
aa(lp713
F0.24284538315732465
aF0.39265806373302387
aa(lp714
F0.24593052240784938
aF0.39313053757596444
aa(lp715
F0.24700512958963283
aF0.39683748220306597
aa(lp716
F0.24690828162934988
aF0.39869161380501117
aa(lp717
F0.24634368530020703
aF0.3927772456329547
aa(lp718
F0.24594011976047903
aF0.3948800141563128
aa(lp719
F0.2500893355667225
aF0.40897458267559494
aa(lp720
F0.25035435595938
aF0.40308773623349525
aa(lp721
F0.254448595505618
aF0.41497055708342756
aa(lp722
F0.24494866133038917
aF0.4107500164935143
aa(lp723
F0.25131514324693044
aF0.4125650315978879
aa(lp724
F0.2506468493150685
aF0.41392750267432343
aa(lp725
F0.2466076369673492
aF0.4168592224008508
aa(lp726
F0.25040848214285716
aF0.4204013299853591
aaa(lp727
F0.0
aF0.1
aF0.2
aF0.3
aF0.4
aF0.5
aF0.6
aF0.7
aF0.8
aF0.9
aF1.0
aF1.1
aF1.2
aF1.3
aF1.4
aF1.5
aF1.6
aF1.7
aF1.8
aF1.9
aF2.0
aF2.1
aF2.2
aF2.3
aF2.4
aF2.5
aF2.6
aF2.7
aF2.8
aF2.9
aF3.0
aF3.1
aF3.2
aF3.3
aF3.4
aF3.5
aF3.6
aF3.7
aF3.8
aF3.9
aF4.0
aF4.1
aF4.2
aF4.3
aF4.4
aF4.5
aF4.6
aF4.7
aF4.8
aF4.9
aF5.0
aF5.1
aF5.2
aF5.3
aF5.4
aF5.5
aF5.6
aF5.7
aF5.8
aF5.9
aF6.0
aF6.1
aF6.2
aF6.3
aF6.4
aF6.5
aF6.6
aF6.7
aF6.8
aF6.9
aF7.0
aF7.1
aF7.2
aF7.3
aF7.4
aF7.5
aF7.6
aF7.7
aF7.8
aF7.9
aF8.0
aF8.1
aF8.2
aF8.3
aF8.4
aF8.5
aF8.6
aF8.7
aF8.8
aF8.9
aF9.0
aF9.1
aF9.2
aF9.3
aF9.4
aF9.5
aF9.6
aF9.7
aF9.8
aF9.9
aF10.0
aF10.1
aF10.2
aF10.3
aF10.4
aF10.5
aF10.6
aF10.7
aF10.8
aF10.9
aF11.0
aF11.1
aF11.2
aF11.3
aF11.4
aF11.5
aF11.6
aF11.7
aF11.8
aF11.9
aF12.0
aF12.1
aF12.2
aF12.3
aF12.4
aF12.5
aF12.6
aF12.7
aF12.8
aF12.9
aF13.0
aF13.1
aF13.2
aF13.3
aF13.4
aF13.5
aF13.6
aF13.7
aF13.8
aF13.9
aF14.0
aF14.1
aF14.2
aF14.3
aF14.4
aF14.5
aF14.6
aF14.7
aF14.8
aF14.9
aF15.0
aF15.1
aF15.2
aF15.3
aF15.4
aF15.5
aF15.6
aF15.7
aF15.8
aF15.9
aF16.0
aF16.1
aF16.2
aF16.3
aF16.4
aF16.5
aF16.6
aF16.7
aF16.8
aF16.9
aF17.0
aF17.1
aF17.2
aF17.3
aF17.4
aF17.5
aF17.6
aF17.7
aF17.8
aF17.9
aF18.0
aF18.1
aF18.2
aF18.3
aF18.4
aF18.5
aF18.6
aF18.7
aF18.8
aF18.9
aF19.0
aF19.1
aF19.2
aF19.3
aF19.4
aF19.5
aF19.6
aF19.7
aF19.8
aF19.9
aF20.0
aF20.1
aF20.2
aF20.3
aF20.4
aF20.5
aF20.6
aF20.7
aF20.8
aF20.9
aF21.0
aF21.1
aF21.2
aF21.3
aF21.4
aF21.5
aF21.6
aF21.7
aF21.8
aF21.9
aF22.0
aF22.1
aF22.2
aF22.3
aF22.4
aF22.5
aF22.6
aF22.7
aF22.8
aF22.9
aF23.0
aF23.1
aF23.2
aF23.3
aF23.4
aF23.5
aF23.6
aF23.7
aF23.8
aF23.9
aa(lp728
(lp729
F0.24515844544095666
aF0.1482711966765064
aa(lp730
F0.2430663143989432
aF0.14173473380277396
aa(lp731
F0.2398552875695733
aF0.1396873905179982
aa(lp732
F0.24590856542301628
aF0.14440687897968596
aa(lp733
F0.24612401724575197
aF0.14372436868578184
aa(lp734
F0.24525996852046172
aF0.14312694844833487
aa(lp735
F0.24693893735130848
aF0.14297967861448813
aa(lp736
F0.24931807481035836
aF0.1461700095632379
aa(lp737
F0.24818753219989698
aF0.14519423899912856
aa(lp738
F0.2472842021698862
aF0.14314563209192113
aa(lp739
F0.2489408746640606
aF0.14623923684122328
aa(lp740
F0.24837762762762763
aF0.14845936318779338
aa(lp741
F0.25489087745463584
aF0.14887813616160167
aa(lp742
F0.25282324099043885
aF0.14556647018785263
aa(lp743
F0.24571892830563136
aF0.14397465015511554
aa(lp744
F0.25123816531763554
aF0.14867653449383436
aa(lp745
F0.2522265255573069
aF0.14927423831379702
aa(lp746
F0.25117560634328356
aF0.1499078783821312
aa(lp747
F0.25157571495546177
aF0.1489019253173209
aa(lp748
F0.259293717396235
aF0.1579031603199049
aa(lp749
F0.2516703372333104
aF0.1496027378822774
aa(lp750
F0.25019482716944647
aF0.14691107964138658
aa(lp751
F0.24943264920971928
aF0.1489700446887575
aa(lp752
F0.25120865781035273
aF0.15069588631355957
aa(lp753
F0.24639685112294515
aF0.15023746048789743
aa(lp754
F0.24429708468301714
aF0.14746722168888104
aa(lp755
F0.2509089845577913
aF0.15101209811923746
aa(lp756
F0.25530187804312543
aF0.15629171721744056
aa(lp757
F0.2511459739091318
aF0.15190701248331073
aa(lp758
F0.25072455367493623
aF0.15550528447445722
aa(lp759
F0.25444044943820227
aF0.15362661275718742
aa(lp760
F0.2524961575408261
aF0.15600471095035243
aa(lp761
F0.25420415537488705
aF0.15774814260408832
aa(lp762
F0.25188524203069657
aF0.15439647249791208
aa(lp763
F0.25652894387980557
aF0.15872792504688957
aa(lp764
F0.2536606356968215
aF0.15805878138152887
aa(lp765
F0.24944178165093198
aF0.15437803883236006
aa(lp766
F0.24864905570164952
aF0.15352964592965437
aa(lp767
F0.24683873325213154
aF0.1543189379515059
aa(lp768
F0.2506285786673423
aF0.15756296860815963
aa(lp769
F0.24939851425832735
aF0.15832669650495368
aa(lp770
F0.2534669926650367
aF0.16034663481853983
aa(lp771
F0.25401031706089583
aF0.1579748110315795
aa(lp772
F0.25248469643753135
aF0.16260832665097916
aa(lp773
F0.2539493243243243
aF0.1610478305408813
aa(lp774
F0.2546901337370679
aF0.16158279258704952
aa(lp775
F0.2557141363992684
aF0.16308783280457192
aa(lp776
F0.25325804735301943
aF0.16366530972299437
aa(lp777
F0.2532169888374626
aF0.16469881739721612
aa(lp778
F0.2526140398798143
aF0.1646004266326083
aa(lp779
F0.2534363256784969
aF0.1647298338433076
aa(lp780
F0.2517979989183342
aF0.1666863076468367
aa(lp781
F0.25171097496004263
aF0.16622131177789382
aa(lp782
F0.25376679306608885
aF0.16932069179507284
aa(lp783
F0.25457543040560254
aF0.170322071590849
aa(lp784
F0.2531318181818182
aF0.16799705070920637
aa(lp785
F0.24325067466266867
aF0.1651504671365949
aa(lp786
F0.25203329404832053
aF0.17386440037959267
aa(lp787
F0.25145173041894353
aF0.17626433803116823
aa(lp788
F0.2507696335078534
aF0.17529203314504396
aa(lp789
F0.24789342474291057
aF0.17333267671655303
aa(lp790
F0.24864365612016617
aF0.17614880116639287
aa(lp791
F0.2503169923815833
aF0.1809497197372583
aa(lp792
F0.2505987196765499
aF0.1807472869995926
aa(lp793
F0.24719929453262784
aF0.18443482725366514
aa(lp794
F0.24881223479490805
aF0.18307198119727747
aa(lp795
F0.2514288880679719
aF0.1897657336072501
aa(lp796
F0.24840843547224226
aF0.18965666803018627
aa(lp797
F0.24879239543726234
aF0.19249061335480866
aa(lp798
F0.24779705083430345
aF0.1931417238407938
aa(lp799
F0.24437243090007088
aF0.19104636738128963
aa(lp800
F0.23870007680491553
aF0.19159039052379973
aa(lp801
F0.2445026826248452
aF0.1994598607691179
aa(lp802
F0.2455885623510723
aF0.19963195749865806
aa(lp803
F0.24333224489795918
aF0.19953211046965372
aa(lp804
F0.24812890955198647
aF0.20324196483922022
aa(lp805
F0.24777711144427786
aF0.2165446519677918
aa(lp806
F0.24541474395047833
aF0.22610913978277025
aa(lp807
F0.24408289855072465
aF0.22923841572584155
aa(lp808
F0.24849475632325724
aF0.23465649336827288
aa(lp809
F0.23974421296296297
aF0.23233693429524413
aa(lp810
F0.24839397590361445
aF0.23926525105313226
aa(lp811
F0.24732729468599035
aF0.24030463873917426
aa(lp812
F0.244946587537092
aF0.24029227451776441
aa(lp813
F0.23148523398455248
aF0.21998551374837938
aa(lp814
F0.24134003868471954
aF0.21744555927507583
aa(lp815
F0.23729939393939395
aF0.2176382092300238
aa(lp816
F0.241588742810189
aF0.22188280133988958
aa(lp817
F0.23956743002544528
aF0.2392284827588399
aa(lp818
F0.24327848621966267
aF0.22741260562115506
aa(lp819
F0.2364044461778471
aF0.2219766498577217
aa(lp820
F0.24351319774989183
aF0.23278902748894867
aa(lp821
F0.23926578411405294
aF0.24720268449996663
aa(lp822
F0.24707394002068253
aF0.2501407781866743
aa(lp823
F0.23696791162546027
aF0.2510252650763194
aa(lp824
F0.24257587131367292
aF0.25739452558177767
aa(lp825
F0.23575883905013192
aF0.25618035076273843
aa(lp826
F0.2409706533776301
aF0.265948829190348
aa(lp827
F0.2390933133732535
aF0.2572780534364126
aa(lp828
F0.24331090245174752
aF0.26144598381719963
aa(lp829
F0.24196760154738878
aF0.2561349302253031
aa(lp830
F0.23214761431411532
aF0.25949666419104467
aa(lp831
F0.2400081053698075
aF0.2631432055259116
aa(lp832
F0.2364461778471139
aF0.2700332688288712
aa(lp833
F0.23513009808982963
aF0.2681583437485078
aa(lp834
F0.2343325
aF0.2651078026336808
aa(lp835
F0.23668698597000484
aF0.2641873752747485
aa(lp836
F0.2373925558312655
aF0.272125495401362
aa(lp837
F0.23561745283018867
aF0.26639087543580237
aa(lp838
F0.23300904761904762
aF0.2720250132370725
aa(lp839
F0.23700392670157067
aF0.2638490211550835
aa(lp840
F0.2357969959035048
aF0.26898595369995576
aa(lp841
F0.23607378074197582
aF0.26329071063609455
aa(lp842
F0.23136117281208352
aF0.26841410574500474
aa(lp843
F0.23888827331486612
aF0.27872023683491803
aa(lp844
F0.2357438202247191
aF0.2758799834668429
aa(lp845
F0.23499866607381062
aF0.2773501398723062
aa(lp846
F0.23756397914159647
aF0.2684690881690071
aa(lp847
F0.23388384679433805
aF0.27392798631785165
aa(lp848
F0.2310016849199663
aF0.2757582535651406
aa(lp849
F0.23714879303521963
aF0.27432548968136866
aa(lp850
F0.23618358778625956
aF0.2714912916768896
aa(lp851
F0.23606372165754497
aF0.2720643188502722
aa(lp852
F0.23961187739463605
aF0.2745968980747474
aa(lp853
F0.24008665297741272
aF0.2820209368821064
aa(lp854
F0.23912437095614666
aF0.26918431062076376
aa(lp855
F0.24607192154013804
aF0.2754642643958257
aa(lp856
F0.23804714179658498
aF0.27559199960483394
aa(lp857
F0.23329528267915015
aF0.27400739637214866
aa(lp858
F0.23444876693296282
aF0.271758935015282
aa(lp859
F0.23157059429749227
aF0.2730390775770904
aa(lp860
F0.23347752619128084
aF0.2717025467676822
aa(lp861
F0.2382564190345772
aF0.2792857113098159
aa(lp862
F0.23678153446033812
aF0.2740878057583318
aa(lp863
F0.2360201320132013
aF0.277275984413547
aa(lp864
F0.24057100199071002
aF0.2797231694821905
aa(lp865
F0.23298126756166096
aF0.2723998895674685
aa(lp866
F0.23375942384308918
aF0.27213642694528184
aa(lp867
F0.24071257842844337
aF0.27436835109069996
aa(lp868
F0.23782845579078454
aF0.27851402108991763
aa(lp869
F0.2360385520894644
aF0.2734944754975217
aa(lp870
F0.23201503094606543
aF0.2734324277068204
aa(lp871
F0.23407153242221576
aF0.2741745676455733
aa(lp872
F0.23425772594752187
aF0.2760819191165344
aa(lp873
F0.23608790879087907
aF0.28018798420955787
aa(lp874
F0.2351620267260579
aF0.27533124461920483
aa(lp875
F0.23987692747001713
aF0.28083293397571757
aa(lp876
F0.23465723981900455
aF0.2788134784215971
aa(lp877
F0.23768523279063125
aF0.2842486281542648
aa(lp878
F0.23666441060349688
aF0.28368835313815627
aa(lp879
F0.2372217858078031
aF0.277851340663477
aa(lp880
F0.23805571391552216
aF0.2774690727265426
aa(lp881
F0.23920056862238304
aF0.2800709534669593
aa(lp882
F0.23787503267973856
aF0.2827376385364951
aa(lp883
F0.24075501171569905
aF0.28331190320274324
aa(lp884
F0.2426902767199797
aF0.2815720894884152
aa(lp885
F0.24113219994925147
aF0.28224376642585103
aa(lp886
F0.2407039220712638
aF0.2857123383126822
aa(lp887
F0.23520105124835744
aF0.2871675855420768
aa(lp888
F0.2385309462915601
aF0.2880653464687258
aa(lp889
F0.2400238270695161
aF0.2833892933223191
aa(lp890
F0.23477884852977512
aF0.28376386061052555
aa(lp891
F0.23528378715963028
aF0.28853590923659256
aa(lp892
F0.23540121654501217
aF0.287658753356394
aa(lp893
F0.23952663016426082
aF0.291040370565875
aa(lp894
F0.2351674074074074
aF0.2902143043161051
aa(lp895
F0.2433163389172129
aF0.2923907203866682
aa(lp896
F0.24128610489684313
aF0.2962885148988744
aa(lp897
F0.24078990520112734
aF0.3012853218071007
aa(lp898
F0.2422647283856159
aF0.30115619854389875
aa(lp899
F0.24162296650717704
aF0.29571693852056713
aa(lp900
F0.24038171513060622
aF0.2994466813021638
aa(lp901
F0.23688283177109026
aF0.30103034158441017
aa(lp902
F0.24151773049645392
aF0.3011130066927445
aa(lp903
F0.24124611917876815
aF0.3052612455180619
aa(lp904
F0.2394075975359343
aF0.3098917814898381
aa(lp905
F0.24047310450819673
aF0.3118585896812435
aa(lp906
F0.2372060878243513
aF0.3070187803909022
aa(lp907
F0.2400867758494256
aF0.308175500198959
aa(lp908
F0.23945807414779793
aF0.3117329338107753
aa(lp909
F0.23650978952520804
aF0.30934294924381095
aa(lp910
F0.2369125210285989
aF0.3104926111461579
aa(lp911
F0.23757971014492754
aF0.3102885635635653
aa(lp912
F0.23880640465793304
aF0.31499760825787515
aa(lp913
F0.24097088122605362
aF0.32205303690475545
aa(lp914
F0.2432999259442113
aF0.31946032292516596
aa(lp915
F0.24397154978787125
aF0.3241134229290493
aa(lp916
F0.24142806122448981
aF0.32605160140002476
aa(lp917
F0.23849155107187894
aF0.3256708805584771
aa(lp918
F0.23868196721311477
aF0.32618624153644643
aa(lp919
F0.23970324803149606
aF0.3241430938504614
aa(lp920
F0.24490734265734268
aF0.33109879016600835
aa(lp921
F0.23954243634548178
aF0.33013441377340297
aa(lp922
F0.2427740932642487
aF0.3369956454394834
aa(lp923
F0.23834442724458205
aF0.33793809136781766
aa(lp924
F0.24665414307771488
aF0.3395286304652531
aa(lp925
F0.24623404255319148
aF0.34210110565750806
aa(lp926
F0.24178664287535048
aF0.3409465445741221
aa(lp927
F0.2412396255060729
aF0.3397772291448725
aa(lp928
F0.24521194409148667
aF0.3434069255743719
aa(lp929
F0.24563807584627131
aF0.3449986264855969
aa(lp930
F0.24402488687782806
aF0.34389494485870414
aa(lp931
F0.24527875294734086
aF0.35289420447361414
aa(lp932
F0.24550664660145474
aF0.34806550493910776
aa(lp933
F0.2397266788607264
aF0.3544292608072658
aa(lp934
F0.24259915820747707
aF0.34881175925850444
aa(lp935
F0.23840808444902162
aF0.35519128781042425
aa(lp936
F0.24367555894308943
aF0.35578977156087105
aa(lp937
F0.245912633723892
aF0.3582951902002079
aa(lp938
F0.24627774974772956
aF0.3570265075947315
aa(lp939
F0.24316612621601397
aF0.35498688351128543
aa(lp940
F0.24542607151914786
aF0.3607739855440233
aa(lp941
F0.24485514967021818
aF0.36198915699492773
aa(lp942
F0.24790047268907564
aF0.3688926319554142
aa(lp943
F0.24359228278467351
aF0.37489339013207473
aa(lp944
F0.24597025052192067
aF0.3719418733368998
aa(lp945
F0.25116532153085136
aF0.37592880740186774
aa(lp946
F0.25530078328981726
aF0.3792765671850595
aa(lp947
F0.24817599392251202
aF0.37101483429306104
aa(lp948
F0.24359973262032086
aF0.38048697341030985
aa(lp949
F0.24767640156453719
aF0.3792383381381799
aa(lp950
F0.24499466097170314
aF0.3826820360200469
aa(lp951
F0.24810493991989319
aF0.38734956197473913
aa(lp952
F0.2506541850220264
aF0.39316926782675
aa(lp953
F0.2482888355981881
aF0.3890157948207147
aa(lp954
F0.24407670380927704
aF0.38596143050994575
aa(lp955
F0.24751746372917785
aF0.39198142371784706
aa(lp956
F0.24792624113475178
aF0.40387164070169657
aa(lp957
F0.2532937321937322
aF0.4068064617712873
aa(lp958
F0.24828400556328234
aF0.40405498925695627
aa(lp959
F0.248060773480663
aF0.4053859556514851
aa(lp960
F0.25027449888641423
aF0.40560508389758815
aa(lp961
F0.24794544948510994
aF0.4076760107767366
aa(lp962
F0.2527526462395543
aF0.41154160237426296
aa(lp963
F0.25017133066818964
aF0.41672126984176316
aa(lp964
F0.2546841375485302
aF0.41416889732970424
aa(lp965
F0.24866703724291273
aF0.4160967430943655
aa(lp966
F0.2515056244591866
aF0.4241625939757002
aa(lp967
F0.25010351966873706
aF0.42915796314159776
aa(lp968
F0.2529386167146974
aF0.42718919488083335
aaa(lp969
F0.0
aF0.1
aF0.2
aF0.3
aF0.4
aF0.5
aF0.6
aF0.7
aF0.8
aF0.9
aF1.0
aF1.1
aF1.2
aF1.3
aF1.4
aF1.5
aF1.6
aF1.7
aF1.8
aF1.9
aF2.0
aF2.1
aF2.2
aF2.3
aF2.4
aF2.5
aF2.6
aF2.7
aF2.8
aF2.9
aF3.0
aF3.1
aF3.2
aF3.3
aF3.4
aF3.5
aF3.6
aF3.7
aF3.8
aF3.9
aF4.0
aF4.1
aF4.2
aF4.3
aF4.4
aF4.5
aF4.6
aF4.7
aF4.8
aF4.9
aF5.0
aF5.1
aF5.2
aF5.3
aF5.4
aF5.5
aF5.6
aF5.7
aF5.8
aF5.9
aF6.0
aF6.1
aF6.2
aF6.3
aF6.4
aF6.5
aF6.6
aF6.7
aF6.8
aF6.9
aF7.0
aF7.1
aF7.2
aF7.3
aF7.4
aF7.5
aF7.6
aF7.7
aF7.8
aF7.9
aF8.0
aF8.1
aF8.2
aF8.3
aF8.4
aF8.5
aF8.6
aF8.7
aF8.8
aF8.9
aF9.0
aF9.1
aF9.2
aF9.3
aF9.4
aF9.5
aF9.6
aF9.7
aF9.8
aF9.9
aF10.0
aF10.1
aF10.2
aF10.3
aF10.4
aF10.5
aF10.6
aF10.7
aF10.8
aF10.9
aF11.0
aF11.1
aF11.2
aF11.3
aF11.4
aF11.5
aF11.6
aF11.7
aF11.8
aF11.9
aF12.0
aF12.1
aF12.2
aF12.3
aF12.4
aF12.5
aF12.6
aF12.7
aF12.8
aF12.9
aF13.0
aF13.1
aF13.2
aF13.3
aF13.4
aF13.5
aF13.6
aF13.7
aF13.8
aF13.9
aF14.0
aF14.1
aF14.2
aF14.3
aF14.4
aF14.5
aF14.6
aF14.7
aF14.8
aF14.9
aF15.0
aF15.1
aF15.2
aF15.3
aF15.4
aF15.5
aF15.6
aF15.7
aF15.8
aF15.9
aF16.0
aF16.1
aF16.2
aF16.3
aF16.4
aF16.5
aF16.6
aF16.7
aF16.8
aF16.9
aF17.0
aF17.1
aF17.2
aF17.3
aF17.4
aF17.5
aF17.6
aF17.7
aF17.8
aF17.9
aF18.0
aF18.1
aF18.2
aF18.3
aF18.4
aF18.5
aF18.6
aF18.7
aF18.8
aF18.9
aF19.0
aF19.1
aF19.2
aF19.3
aF19.4
aF19.5
aF19.6
aF19.7
aF19.8
aF19.9
aF20.0
aF20.1
aF20.2
aF20.3
aF20.4
aF20.5
aF20.6
aF20.7
aF20.8
aF20.9
aF21.0
aF21.1
aF21.2
aF21.3
aF21.4
aF21.5
aF21.6
aF21.7
aF21.8
aF21.9
aF22.0
aF22.1
aF22.2
aF22.3
aF22.4
aF22.5
aF22.6
aF22.7
aF22.8
aF22.9
aF23.0
aF23.1
aF23.2
aF23.3
aF23.4
aF23.5
aF23.6
aF23.7
aF23.8
aF23.9
aa(lp970
(lp971
F0.24435531135531136
aF0.14533549514305275
aa(lp972
F0.24072394206191425
aF0.1374203795009423
aa(lp973
F0.24529236812570146
aF0.14555839364028175
aa(lp974
F0.24332362182233647
aF0.14473157058744035
aa(lp975
F0.24813115204839153
aF0.1460543572053087
aa(lp976
F0.24182812924246538
aF0.14633708214051527
aa(lp977
F0.24767337550316273
aF0.14478797183735695
aa(lp978
F0.24636442334543424
aF0.14366489895603818
aa(lp979
F0.24418579387186629
aF0.14279480128209285
aa(lp980
F0.24989705469845724
aF0.14927000372508184
aa(lp981
F0.24872308561740605
aF0.14385263939501264
aa(lp982
F0.2518725571153317
aF0.14771689234707153
aa(lp983
F0.24886164383561646
aF0.14806548395588126
aa(lp984
F0.2486812971764048
aF0.14486259272659463
aa(lp985
F0.2519873068432671
aF0.1477058133291538
aa(lp986
F0.24566529830322936
aF0.14938027987415847
aa(lp987
F0.25234466149317636
aF0.15039070287323542
aa(lp988
F0.24857471264367817
aF0.14492546910225432
aa(lp989
F0.2486210307131702
aF0.1485298275240936
aa(lp990
F0.24621899592944368
aF0.14788652246278555
aa(lp991
F0.25062736344537817
aF0.15172465853148479
aa(lp992
F0.24723586387434557
aF0.14800450663563958
aa(lp993
F0.24875507513841288
aF0.148039104076102
aa(lp994
F0.24890956749672347
aF0.15091505874376338
aa(lp995
F0.2528331550802139
aF0.1565205685832213
aa(lp996
F0.25113581183611533
aF0.15297048127969184
aa(lp997
F0.24986183165696135
aF0.15119481589225842
aa(lp998
F0.25579721059972105
aF0.15423557502672405
aa(lp999
F0.2499602754237288
aF0.15182586927292863
aa(lp1000
F0.25052233676975943
aF0.15266104955220744
aa(lp1001
F0.25413888888888886
aF0.15505448447456158
aa(lp1002
F0.2542200905941913
aF0.1568943003529894
aa(lp1003
F0.24789825503355706
aF0.1537097929216816
aa(lp1004
F0.25520531798245616
aF0.16031244617764442
aa(lp1005
F0.2547607094133697
aF0.16165653717191156
aa(lp1006
F0.24545860745614034
aF0.15599631564072655
aa(lp1007
F0.25004669365722
aF0.15415532134795504
aa(lp1008
F0.25350458970792766
aF0.160722707555776
aa(lp1009
F0.25311529994496423
aF0.16376645194158895
aa(lp1010
F0.2540758050726703
aF0.15957330846412807
aa(lp1011
F0.25020225646670335
aF0.15986297836858782
aa(lp1012
F0.2534894903541607
aF0.16258471902407573
aa(lp1013
F0.25006219960418435
aF0.15975411528919867
aa(lp1014
F0.2524656401482749
aF0.1661777347750878
aa(lp1015
F0.24864821029082776
aF0.1611492792270491
aa(lp1016
F0.2512048571428571
aF0.1672494804656843
aa(lp1017
F0.2496248917123881
aF0.1688415466076721
aa(lp1018
F0.257021404109589
aF0.16839381220962818
aa(lp1019
F0.25354705181655746
aF0.16886900591146223
aa(lp1020
F0.2540928829915561
aF0.16647605817749386
aa(lp1021
F0.255136729994243
aF0.1734328522327545
aa(lp1022
F0.25476715305805653
aF0.1720904025070226
aa(lp1023
F0.2548344532681735
aF0.17023681163588603
aa(lp1024
F0.2554578720787208
aF0.1701620857102125
aa(lp1025
F0.25606166666666663
aF0.17794038549699492
aa(lp1026
F0.2527482108002602
aF0.17856103709512505
aa(lp1027
F0.24938552188552188
aF0.17538417397276226
aa(lp1028
F0.2541427076064201
aF0.18164285445161196
aa(lp1029
F0.25325698126546486
aF0.18127742749569084
aa(lp1030
F0.2560423192269244
aF0.18456989428168596
aa(lp1031
F0.2572771041369472
aF0.18466630209331944
aa(lp1032
F0.25532435424354244
aF0.1873748351941002
aa(lp1033
F0.2599102189781022
aF0.1888304619984746
aa(lp1034
F0.25099345902270104
aF0.19169193884543786
aa(lp1035
F0.25376147479307753
aF0.19014986539999637
aa(lp1036
F0.2538513513513514
aF0.19812703959643338
aa(lp1037
F0.25815055031446543
aF0.19670169735546378
aa(lp1038
F0.2592444357672784
aF0.20015178516020357
aa(lp1039
F0.2451548254620123
aF0.19533987471054473
aa(lp1040
F0.25440897325280415
aF0.20276780784614096
aa(lp1041
F0.25124856439704674
aF0.20359616647388595
aa(lp1042
F0.2513603187919463
aF0.20376339974181404
aa(lp1043
F0.25199790444258174
aF0.20659790191908486
aa(lp1044
F0.2524662190516156
aF0.20701628599241428
aa(lp1045
F0.24743591941705959
aF0.20729867754271247
aa(lp1046
F0.24586816720257235
aF0.21564923900844296
aa(lp1047
F0.2499225574065736
aF0.21347272404186235
aa(lp1048
F0.25313022351797865
aF0.22352161864352077
aa(lp1049
F0.24835664776307498
aF0.23930808486408334
aa(lp1050
F0.25278608923884516
aF0.24611630028634723
aa(lp1051
F0.24943028126870137
aF0.24321845436474088
aa(lp1052
F0.2497496757457847
aF0.24575210991855403
aa(lp1053
F0.2588418803418804
aF0.27666890241516606
aa(lp1054
F0.24917151162790696
aF0.28986202383835685
aa(lp1055
F0.25631079812206575
aF0.29190331486818605
aa(lp1056
F0.2585796676441838
aF0.3001467926206065
aa(lp1057
F0.26413026052104205
aF0.30662345130273166
aa(lp1058
F0.2597714285714286
aF0.30349750684019394
aa(lp1059
F0.24543647234678626
aF0.27469374134369223
aa(lp1060
F0.24803568657874323
aF0.28295831063564375
aa(lp1061
F0.2522029702970297
aF0.28173361652038215
aa(lp1062
F0.24747437774524159
aF0.2839036319542108
aa(lp1063
F0.2480369833212473
aF0.28256060283964735
aa(lp1064
F0.24624022743425727
aF0.2806860965237512
aa(lp1065
F0.24516920842411039
aF0.2861165444644998
aa(lp1066
F0.23922322097378276
aF0.29007416396468755
aa(lp1067
F0.24278071539657856
aF0.29682182704954274
aa(lp1068
F0.24447619047619049
aF0.2900452764876352
aa(lp1069
F0.24542669584245078
aF0.29557053499194563
aa(lp1070
F0.23705
aF0.3005816533423232
aa(lp1071
F0.23459580230196345
aF0.28951788690638086
aa(lp1072
F0.23535791610284165
aF0.2904557431032827
aa(lp1073
F0.2378961218836565
aF0.2976941441776665
aa(lp1074
F0.25025710325710326
aF0.30108153822392836
aa(lp1075
F0.2467844396859386
aF0.308381835323846
aa(lp1076
F0.2321994401679496
aF0.3026021323981364
aa(lp1077
F0.24603230337078652
aF0.3111578636361802
aa(lp1078
F0.24518269851517108
aF0.3024679679543765
aa(lp1079
F0.23797823033707868
aF0.31160330106533546
aa(lp1080
F0.24042260273972602
aF0.31241632108343426
aa(lp1081
F0.2344631843926998
aF0.3045454298234948
aa(lp1082
F0.24355486284289277
aF0.30573796079124627
aa(lp1083
F0.23740952955367914
aF0.30013136022636744
aa(lp1084
F0.24058653846153846
aF0.31157584151263873
aa(lp1085
F0.24313118811881188
aF0.3123624058082257
aa(lp1086
F0.23235895919574215
aF0.3050238395104312
aa(lp1087
F0.22821489104116224
aF0.30938979304787184
aa(lp1088
F0.23851411764705882
aF0.3111064276667959
aa(lp1089
F0.23619941690962099
aF0.31101850207733994
aa(lp1090
F0.23743376318874562
aF0.3149199898528809
aa(lp1091
F0.23481132075471697
aF0.30792415603267936
aa(lp1092
F0.23024042198778458
aF0.3093902847153838
aa(lp1093
F0.24179484536082474
aF0.30667964644445733
aa(lp1094
F0.23911575052854123
aF0.30988517145449107
aa(lp1095
F0.2379911651021535
aF0.3189447222223683
aa(lp1096
F0.2388001019887812
aF0.3075917414498524
aa(lp1097
F0.2480466264399342
aF0.3248448544971554
aa(lp1098
F0.23539845758354758
aF0.3114439755312969
aa(lp1099
F0.2371725987323257
aF0.31046971408798874
aa(lp1100
F0.24228627450980392
aF0.31308189673566705
aa(lp1101
F0.24338202787121577
aF0.31606512784904306
aa(lp1102
F0.24015753086419753
aF0.3167108745170879
aa(lp1103
F0.24291868758915836
aF0.3166894217757987
aa(lp1104
F0.2398597222222222
aF0.3127206426226038
aa(lp1105
F0.23900225123818097
aF0.3125031524084196
aa(lp1106
F0.2402366710013004
aF0.30981276749186515
aa(lp1107
F0.2376965085049239
aF0.31429619141732945
aa(lp1108
F0.23778656126482217
aF0.3147904038572675
aa(lp1109
F0.24596574733096088
aF0.3188337995031695
aa(lp1110
F0.24302850779510024
aF0.3228097306178918
aa(lp1111
F0.23912103505843071
aF0.3128031208963859
aa(lp1112
F0.24006225848003435
aF0.3202260812540787
aa(lp1113
F0.23855274086378736
aF0.3158041609824917
aa(lp1114
F0.23975900621118013
aF0.3177007247620616
aa(lp1115
F0.2418369970966404
aF0.32153473056980497
aa(lp1116
F0.24003338632750396
aF0.3172646669029333
aa(lp1117
F0.24246494320407366
aF0.3177684849021824
aa(lp1118
F0.24169549902152643
aF0.3196932169675089
aa(lp1119
F0.2399158950617284
aF0.3163051729476947
aa(lp1120
F0.23867843438219494
aF0.3193161926881639
aa(lp1121
F0.2459104426002766
aF0.3098615081037023
aa(lp1122
F0.23792734082397002
aF0.31931575162128417
aa(lp1123
F0.2448757809628813
aF0.3203301031828485
aa(lp1124
F0.23785282183696052
aF0.3189674914758839
aa(lp1125
F0.24516308700400435
aF0.3214781846577777
aa(lp1126
F0.23995443037974684
aF0.3207939850526471
aa(lp1127
F0.2449101646385111
aF0.3232690988852248
aa(lp1128
F0.238315733143061
aF0.3228140551395411
aa(lp1129
F0.24518492901346925
aF0.3289229693381355
aa(lp1130
F0.24476466049382714
aF0.3374230460707232
aa(lp1131
F0.2464894717399335
aF0.3334946090542877
aa(lp1132
F0.24415599999999998
aF0.33400204759513774
aa(lp1133
F0.2399429978888107
aF0.32805797577314993
aa(lp1134
F0.23954560983942602
aF0.3287284194794243
aa(lp1135
F0.2423629764065336
aF0.3386044284668169
aa(lp1136
F0.2409545923632611
aF0.3345239141553884
aa(lp1137
F0.24104484463276837
aF0.3359664209352174
aa(lp1138
F0.24086488413547236
aF0.3407649633807191
aa(lp1139
F0.24744359597362026
aF0.34099607620560685
aa(lp1140
F0.2486221248630887
aF0.34890173712549316
aa(lp1141
F0.24274424808269424
aF0.33521292350109044
aa(lp1142
F0.24484117032392894
aF0.3454721465366446
aa(lp1143
F0.24426099290780143
aF0.35029451243905685
aa(lp1144
F0.24102181818181817
aF0.3523391896740667
aa(lp1145
F0.2513893486865779
aF0.35572425978695843
aa(lp1146
F0.24722986111111112
aF0.35345705957023443
aa(lp1147
F0.24613794326241137
aF0.35638166211009564
aa(lp1148
F0.24949588845191278
aF0.36040743574940437
aa(lp1149
F0.24571381458409675
aF0.36427014739333397
aa(lp1150
F0.2538356363636364
aF0.3669728445619932
aa(lp1151
F0.24691428571428573
aF0.3628722648679864
aa(lp1152
F0.24246081617912604
aF0.36608766401661624
aa(lp1153
F0.24701711491442543
aF0.3649754431882472
aa(lp1154
F0.24632776686313032
aF0.3542628081115223
aa(lp1155
F0.2401673360107095
aF0.35982902066837785
aa(lp1156
F0.24581720067453625
aF0.36424872997497526
aa(lp1157
F0.2439251336898396
aF0.34486765173983736
aa(lp1158
F0.24359942979330007
aF0.37413135222782035
aa(lp1159
F0.24562708259482452
aF0.37689904290521714
aa(lp1160
F0.24512332730560576
aF0.3802164185619323
aa(lp1161
F0.24246712181099536
aF0.38041646780829985
aa(lp1162
F0.24757189072609634
aF0.38444092935482094
aa(lp1163
F0.2441221181556196
aF0.38603833521161246
aa(lp1164
F0.24516505823627288
aF0.37595775524925956
aa(lp1165
F0.24182795698924733
aF0.38144066030059964
aa(lp1166
F0.24684588441330998
aF0.3868182132854423
aa(lp1167
F0.2492793274742071
aF0.4033936443071922
aa(lp1168
F0.24763014705882352
aF0.39947492289601966
aa(lp1169
F0.24263202662721894
aF0.4018108652883117
aa(lp1170
F0.24283648750946252
aF0.40720720920875225
aa(lp1171
F0.25024456298727943
aF0.4245982174243386
aa(lp1172
F0.2548961284230406
aF0.45484897032373256
aa(lp1173
F0.2485217225609756
aF0.414605665308145
aa(lp1174
F0.24857972027972028
aF0.40178784380801136
aa(lp1175
F0.24951120238984317
aF0.41478129542532843
aa(lp1176
F0.24197085201793722
aF0.41517196604909173
aa(lp1177
F0.247079940784604
aF0.4175398642288078
aa(lp1178
F0.2450702639751553
aF0.4267400810899174
aa(lp1179
F0.24719164430816404
aF0.42758407138830873
aa(lp1180
F0.2482114779874214
aF0.4333579102110021
aa(lp1181
F0.24524013402829486
aF0.42436785109198477
aa(lp1182
F0.2507941842900302
aF0.42941245159121605
aa(lp1183
F0.24840241527074405
aF0.437205367801072
aa(lp1184
F0.2505746068277714
aF0.43568348278923064
aa(lp1185
F0.257724380318165
aF0.4341312618357327
aa(lp1186
F0.2540653961136024
aF0.4343295271469073
aa(lp1187
F0.25475379696243006
aF0.4507293083124536
aa(lp1188
F0.2515021260146888
aF0.4457107382115871
aa(lp1189
F0.24865148663906664
aF0.44082866555868216
aa(lp1190
F0.24849790316431564
aF0.4449400604728721
aa(lp1191
F0.24854642720672526
aF0.4482092275943503
aa(lp1192
F0.25093837961201976
aF0.44787341418757365
aa(lp1193
F0.2566671686746988
aF0.44980456428921217
aa(lp1194
F0.2505273894975444
aF0.4520958248331237
aa(lp1195
F0.24756352537199544
aF0.4550956172801129
aa(lp1196
F0.24950902804456396
aF0.45867559926007356
aa(lp1197
F0.25111384266263237
aF0.4578614202037496
aa(lp1198
F0.25048524203069655
aF0.4679505276599597
aa(lp1199
F0.2472315290399052
aF0.46936442953955215
aa(lp1200
F0.24864635093167703
aF0.46763367159144625
aa(lp1201
F0.24947418738049712
aF0.4667912033735423
aa(lp1202
F0.24886010160218835
aF0.4737778433465621
aa(lp1203
F0.25360375099760574
aF0.48156408490890174
aa(lp1204
F0.256828560371517
aF0.4758723851274877
aa(lp1205
F0.2546644242184409
aF0.4829420941307022
aa(lp1206
F0.25293184584178496
aF0.4888192209219437
aa(lp1207
F0.25171445831655254
aF0.49006853216375973
aa(lp1208
F0.25321346938775513
aF0.4962815843098307
aa(lp1209
F0.25384262554369313
aF0.4884607391962447
aa(lp1210
F0.25325479787668437
aF0.4976649540170076
aaa(lp1211
F0.0
aF0.1
aF0.2
aF0.3
aF0.4
aF0.5
aF0.6
aF0.7
aF0.8
aF0.9
aF1.0
aF1.1
aF1.2
aF1.3
aF1.4
aF1.5
aF1.6
aF1.7
aF1.8
aF1.9
aF2.0
aF2.1
aF2.2
aF2.3
aF2.4
aF2.5
aF2.6
aF2.7
aF2.8
aF2.9
aF3.0
aF3.1
aF3.2
aF3.3
aF3.4
aF3.5
aF3.6
aF3.7
aF3.8
aF3.9
aF4.0
aF4.1
aF4.2
aF4.3
aF4.4
aF4.5
aF4.6
aF4.7
aF4.8
aF4.9
aF5.0
aF5.1
aF5.2
aF5.3
aF5.4
aF5.5
aF5.6
aF5.7
aF5.8
aF5.9
aF6.0
aF6.1
aF6.2
aF6.3
aF6.4
aF6.5
aF6.6
aF6.7
aF6.8
aF6.9
aF7.0
aF7.1
aF7.2
aF7.3
aF7.4
aF7.5
aF7.6
aF7.7
aF7.8
aF7.9
aF8.0
aF8.1
aF8.2
aF8.3
aF8.4
aF8.5
aF8.6
aF8.7
aF8.8
aF8.9
aF9.0
aF9.1
aF9.2
aF9.3
aF9.4
aF9.5
aF9.6
aF9.7
aF9.8
aF9.9
aF10.0
aF10.1
aF10.2
aF10.3
aF10.4
aF10.5
aF10.6
aF10.7
aF10.8
aF10.9
aF11.0
aF11.1
aF11.2
aF11.3
aF11.4
aF11.5
aF11.6
aF11.7
aF11.8
aF11.9
aF12.0
aF12.1
aF12.2
aF12.3
aF12.4
aF12.5
aF12.6
aF12.7
aF12.8
aF12.9
aF13.0
aF13.1
aF13.2
aF13.3
aF13.4
aF13.5
aF13.6
aF13.7
aF13.8
aF13.9
aF14.0
aF14.1
aF14.2
aF14.3
aF14.4
aF14.5
aF14.6
aF14.7
aF14.8
aF14.9
aF15.0
aF15.1
aF15.2
aF15.3
aF15.4
aF15.5
aF15.6
aF15.7
aF15.8
aF15.9
aF16.0
aF16.1
aF16.2
aF16.3
aF16.4
aF16.5
aF16.6
aF16.7
aF16.8
aF16.9
aF17.0
aF17.1
aF17.2
aF17.3
aF17.4
aF17.5
aF17.6
aF17.7
aF17.8
aF17.9
aF18.0
aF18.1
aF18.2
aF18.3
aF18.4
aF18.5
aF18.6
aF18.7
aF18.8
aF18.9
aF19.0
aF19.1
aF19.2
aF19.3
aF19.4
aF19.5
aF19.6
aF19.7
aF19.8
aF19.9
aF20.0
aF20.1
aF20.2
aF20.3
aF20.4
aF20.5
aF20.6
aF20.7
aF20.8
aF20.9
aF21.0
aF21.1
aF21.2
aF21.3
aF21.4
aF21.5
aF21.6
aF21.7
aF21.8
aF21.9
aF22.0
aF22.1
aF22.2
aF22.3
aF22.4
aF22.5
aF22.6
aF22.7
aF22.8
aF22.9
aF23.0
aF23.1
aF23.2
aF23.3
aF23.4
aF23.5
aF23.6
aF23.7
aF23.8
aF23.9
aa(lp1212
(lp1213
F0.24107793273174735
aF0.14074074967018677
aa(lp1214
F0.24096438688789965
aF0.1436909905160524
aa(lp1215
F0.24203267973856207
aF0.13884354132756044
aa(lp1216
F0.24572810875649742
aF0.14776526129500725
aa(lp1217
F0.24684679999999998
aF0.14439989702858083
aa(lp1218
F0.2438715083798883
aF0.14106309318090188
aa(lp1219
F0.24286539953452288
aF0.14816754495834344
aa(lp1220
F0.24573405909797824
aF0.14274275602521913
aa(lp1221
F0.2456513183785911
aF0.14759749356118707
aa(lp1222
F0.24266770428015563
aF0.14406982517807568
aa(lp1223
F0.24096455973693826
aF0.14293588250221348
aa(lp1224
F0.24743643410852711
aF0.14680565446962546
aa(lp1225
F0.24526782945736436
aF0.14489556337081658
aa(lp1226
F0.24640714872637634
aF0.1460077830631198
aa(lp1227
F0.2482065856526852
aF0.15128589754444352
aa(lp1228
F0.24447802827665266
aF0.14480653679604077
aa(lp1229
F0.2493384194053208
aF0.14413060812512501
aa(lp1230
F0.24764464352370288
aF0.1441895712242262
aa(lp1231
F0.2462492952074104
aF0.1450778121904046
aa(lp1232
F0.24972351121423045
aF0.1520559722233509
aa(lp1233
F0.24583050847457627
aF0.15230138119805894
aa(lp1234
F0.25062636473918315
aF0.151248820853168
aa(lp1235
F0.25165428790199085
aF0.15098426825857128
aa(lp1236
F0.2424334828101644
aF0.14582228482430082
aa(lp1237
F0.2517239480928038
aF0.15446323929687558
aa(lp1238
F0.2524015065913371
aF0.15552415203628822
aa(lp1239
F0.2512494423791822
aF0.15591346211865909
aa(lp1240
F0.25093121895299964
aF0.15194034472793644
aa(lp1241
F0.2513186651998533
aF0.15438686636092905
aa(lp1242
F0.25103186941313643
aF0.15909900791116127
aa(lp1243
F0.245118912797282
aF0.15158539010032893
aa(lp1244
F0.24954026073619634
aF0.16107817800517812
aa(lp1245
F0.2557056805184903
aF0.15963079874819147
aa(lp1246
F0.2527571481619012
aF0.16343903350392186
aa(lp1247
F0.2530889570552147
aF0.16112575690006245
aa(lp1248
F0.25534946021591365
aF0.16280643055084928
aa(lp1249
F0.25422267536704735
aF0.16094372135626256
aa(lp1250
F0.24559304143862393
aF0.1609815844569608
aa(lp1251
F0.24891756965944273
aF0.16480603158202056
aa(lp1252
F0.2569031746031746
aF0.16610266531460052
aa(lp1253
F0.25213552123552124
aF0.16412845470984255
aa(lp1254
F0.2515072920772566
aF0.16072988847298955
aa(lp1255
F0.2535311120032116
aF0.1662840463538675
aa(lp1256
F0.25857240000000004
aF0.16931775618423398
aa(lp1257
F0.25745778145695364
aF0.1689542843011987
aa(lp1258
F0.25559870689655173
aF0.1725539399153266
aa(lp1259
F0.25093544194107453
aF0.17641663332460672
aa(lp1260
F0.25861733161733164
aF0.17997117873671042
aa(lp1261
F0.258429056924384
aF0.18112886637877276
aa(lp1262
F0.2542001752080596
aF0.1741630914873428
aa(lp1263
F0.2589903807615231
aF0.18019967959604968
aa(lp1264
F0.26091405342624857
aF0.18284851374151995
aa(lp1265
F0.25709308829404715
aF0.178412534588163
aa(lp1266
F0.2571074243052675
aF0.18202374472016628
aa(lp1267
F0.2508896680691912
aF0.18456871321510196
aa(lp1268
F0.2554907449209932
aF0.1867461135137707
aa(lp1269
F0.2613635535307517
aF0.19136455480824147
aa(lp1270
F0.2516460945033751
aF0.19003754958551658
aa(lp1271
F0.25765413533834586
aF0.19061502285366766
aa(lp1272
F0.2583455549974887
aF0.19476817847330688
aa(lp1273
F0.25270156555773
aF0.19085281717667474
aa(lp1274
F0.25390440440440437
aF0.19847404941971686
aa(lp1275
F0.2557453512396694
aF0.20157070490025353
aa(lp1276
F0.2607805393971444
aF0.2054942086799011
aa(lp1277
F0.2567552
aF0.20672458933584212
aa(lp1278
F0.254903825717322
aF0.20360275975833278
aa(lp1279
F0.2547775974025974
aF0.20948237904858008
aa(lp1280
F0.2606857451403888
aF0.2125356513185498
aa(lp1281
F0.2507505530973452
aF0.20657355170281105
aa(lp1282
F0.25265719257540603
aF0.2163371549158976
aa(lp1283
F0.2554232294617564
aF0.21802935016334055
aa(lp1284
F0.25466782608695654
aF0.21929761407914358
aa(lp1285
F0.24858860045146727
aF0.21925927749533147
aa(lp1286
F0.2487037256061502
aF0.22337904814863932
aa(lp1287
F0.2541183894230769
aF0.23059857230646444
aa(lp1288
F0.2544154025670945
aF0.22836008710624364
aa(lp1289
F0.24753435582822086
aF0.2304841989740685
aa(lp1290
F0.25204
aF0.23580589987107778
aa(lp1291
F0.2558816747572815
aF0.23873656505949012
aa(lp1292
F0.25271041009463724
aF0.24202524348450358
aa(lp1293
F0.2464136668700427
aF0.24196461806284658
aa(lp1294
F0.24922125543816034
aF0.24515693424543775
aa(lp1295
F0.2512735156771181
aF0.2547704978625988
aa(lp1296
F0.2475151515151515
aF0.24571002500390085
aa(lp1297
F0.2481506777893639
aF0.2363276235916293
aa(lp1298
F0.25172731958762884
aF0.23612549083573034
aa(lp1299
F0.24937480640165202
aF0.23823330451782695
aa(lp1300
F0.2519691653375864
aF0.24594817847572356
aa(lp1301
F0.2452161733615222
aF0.247377220997782
aa(lp1302
F0.24572613202400437
aF0.24716083739246333
aa(lp1303
F0.24331796752226298
aF0.24697823684000264
aa(lp1304
F0.245771474019088
aF0.25111056935132803
aa(lp1305
F0.24110267379679146
aF0.25407390587202655
aa(lp1306
F0.23955419677598666
aF0.2552988678759028
aa(lp1307
F0.23901041666666667
aF0.25973753378695613
aa(lp1308
F0.24174206578188115
aF0.2670993726808287
aa(lp1309
F0.23938995485327313
aF0.26262627415483764
aa(lp1310
F0.24297583429228997
aF0.2697462815508325
aa(lp1311
F0.24693325917686318
aF0.2660884347108451
aa(lp1312
F0.23699506578947369
aF0.262872426771562
aa(lp1313
F0.2372254120148857
aF0.2654266120727897
aa(lp1314
F0.23710552486187844
aF0.2683922000515444
aa(lp1315
F0.24058758923668314
aF0.2714353658716718
aa(lp1316
F0.23254671649759745
aF0.2693881681318562
aa(lp1317
F0.24362492981471084
aF0.2781712990279088
aa(lp1318
F0.24105945366898768
aF0.27837164159999384
aa(lp1319
F0.23577211068909387
aF0.27793999294414273
aa(lp1320
F0.2391731991525424
aF0.27726678935076665
aa(lp1321
F0.24145664105378706
aF0.2854383240456004
aa(lp1322
F0.2453076923076923
aF0.2853713244675272
aa(lp1323
F0.2374879012345679
aF0.27598516131415995
aa(lp1324
F0.23706645898234682
aF0.2849580288012812
aa(lp1325
F0.24004751735184196
aF0.28870728748636176
aa(lp1326
F0.23733710174717368
aF0.2875624450894752
aa(lp1327
F0.23753980891719745
aF0.2940892942947146
aa(lp1328
F0.2303168908819133
aF0.2863942827173406
aa(lp1329
F0.24243791517629026
aF0.2952101065470358
aa(lp1330
F0.23779265223955715
aF0.29070366116834184
aa(lp1331
F0.2421985401459854
aF0.29180002171961855
aa(lp1332
F0.24327474747474748
aF0.29705773155293963
aa(lp1333
F0.23734843049327356
aF0.28511888406107183
aa(lp1334
F0.24006536585365854
aF0.29803758941652003
aa(lp1335
F0.24017442407146214
aF0.29712202823993655
aa(lp1336
F0.2377821739130435
aF0.28803932741997684
aa(lp1337
F0.2367002712477396
aF0.2946824201681283
aa(lp1338
F0.23887471935339022
aF0.29631754449040143
aa(lp1339
F0.23950169635284138
aF0.2900741215044421
aa(lp1340
F0.23340473225404734
aF0.2879637199039468
aa(lp1341
F0.23505491698595146
aF0.293349073357561
aa(lp1342
F0.23990626368812967
aF0.30038056342517183
aa(lp1343
F0.2344902351534476
aF0.28927479789376015
aa(lp1344
F0.23964795509222134
aF0.2928923655332002
aa(lp1345
F0.2419968329374505
aF0.29547157540303914
aa(lp1346
F0.24475058184639253
aF0.2945421014461301
aa(lp1347
F0.23832339791356183
aF0.28915524481823435
aa(lp1348
F0.23328298419698643
aF0.2876966502021911
aa(lp1349
F0.23799425727411944
aF0.29771353556475677
aa(lp1350
F0.24024945533769065
aF0.29097194092337486
aa(lp1351
F0.23968697555636628
aF0.29547746800175023
aa(lp1352
F0.23405096011816837
aF0.2953711976959421
aa(lp1353
F0.23483646295664048
aF0.28806992137146226
aa(lp1354
F0.24135616438356164
aF0.2943547425938807
aa(lp1355
F0.240627425614489
aF0.2879095186117496
aa(lp1356
F0.23529221635883904
aF0.2869915908906311
aa(lp1357
F0.24096597971867845
aF0.29162276746154026
aa(lp1358
F0.2386479447756511
aF0.28729310030808647
aa(lp1359
F0.23875073601570165
aF0.2949816937154567
aa(lp1360
F0.24253673532124193
aF0.2919067636936092
aa(lp1361
F0.24222650749923477
aF0.29227122539352807
aa(lp1362
F0.24269815451986235
aF0.295003945434633
aa(lp1363
F0.23650875145857642
aF0.2886345700179913
aa(lp1364
F0.24080689655172413
aF0.29387323457030656
aa(lp1365
F0.23772914252607183
aF0.28890824869813764
aa(lp1366
F0.2394817871371656
aF0.29035427545662196
aa(lp1367
F0.24226018626309662
aF0.29419978427834836
aa(lp1368
F0.2405863465432456
aF0.29634321790727775
aa(lp1369
F0.2464080808080808
aF0.2966367883966749
aa(lp1370
F0.24206636024130998
aF0.2992916261635208
aa(lp1371
F0.2436726420297849
aF0.2953401659693163
aa(lp1372
F0.24222249589490968
aF0.2966527537590862
aa(lp1373
F0.2375845449649973
aF0.2933388650112109
aa(lp1374
F0.24128156904889844
aF0.29523184577806916
aa(lp1375
F0.24070008149959252
aF0.29932652162177176
aa(lp1376
F0.23929905588160244
aF0.2918122956673187
aa(lp1377
F0.23901756253326237
aF0.2988102452069488
aa(lp1378
F0.24282672064777328
aF0.30333045368809625
aa(lp1379
F0.2409358303497659
aF0.30608565486237116
aa(lp1380
F0.24048351955307265
aF0.30862457041163144
aa(lp1381
F0.24324384303112315
aF0.3074925793063736
aa(lp1382
F0.24372727272727274
aF0.3048099754885389
aa(lp1383
F0.240364904749128
aF0.3080612237642085
aa(lp1384
F0.24323167155425218
aF0.30940028428231686
aa(lp1385
F0.24368262835860602
aF0.3093984491118765
aa(lp1386
F0.24045828877005346
aF0.31125437169231707
aa(lp1387
F0.24306655844155844
aF0.31419878369756515
aa(lp1388
F0.24079015684153596
aF0.3174007974241611
aa(lp1389
F0.2466213698630137
aF0.32225104332299664
aa(lp1390
F0.24647117516629713
aF0.3252391562122154
aa(lp1391
F0.24381367663344405
aF0.32471296896473795
aa(lp1392
F0.24035708390646493
aF0.3237960760620288
aa(lp1393
F0.24140126512651267
aF0.32677031021921943
aa(lp1394
F0.2471214207048458
aF0.32949319196448
aa(lp1395
F0.23839282712244325
aF0.32998196685014963
aa(lp1396
F0.24571212984054672
aF0.33585692334713285
aa(lp1397
F0.24938999431495168
aF0.33783871972901147
aa(lp1398
F0.24673170045045045
aF0.33676042126735767
aa(lp1399
F0.24543458213256483
aF0.3418989720326883
aa(lp1400
F0.24444323441328616
aF0.3345657529279368
aa(lp1401
F0.24772572884234362
aF0.34501468169691507
aa(lp1402
F0.24820559164077943
aF0.3456115738513746
aa(lp1403
F0.24733234019501624
aF0.33984048213364004
aa(lp1404
F0.2459090909090909
aF0.3526861893608385
aa(lp1405
F0.25025552325581396
aF0.35424551263273585
aa(lp1406
F0.24563808180535968
aF0.34899483147766724
aa(lp1407
F0.245703187250996
aF0.3524497922886956
aa(lp1408
F0.247041892277002
aF0.35576396222667533
aa(lp1409
F0.24642288261515602
aF0.36126118892358855
aa(lp1410
F0.24592954876273654
aF0.3609529978705721
aa(lp1411
F0.2504714558863698
aF0.3531029920912719
aa(lp1412
F0.24637351147255301
aF0.3638122650839604
aa(lp1413
F0.24487941429801893
aF0.3614787642448744
aa(lp1414
F0.24320547945205478
aF0.36916741506436046
aa(lp1415
F0.26033485622144587
aF0.36267024506895124
aa(lp1416
F0.24818072945019054
aF0.36126988794329606
aa(lp1417
F0.2571901756311745
aF0.36740109624931117
aa(lp1418
F0.24914665190924185
aF0.36748050111965397
aa(lp1419
F0.2605043549265106
aF0.3733173354551774
aa(lp1420
F0.25248229481196816
aF0.3675183288260171
aa(lp1421
F0.2519363186972957
aF0.37946836799353556
aa(lp1422
F0.24258206817530795
aF0.37724811716144213
aa(lp1423
F0.24527293777134587
aF0.38009224553864657
aa(lp1424
F0.24724230654317297
aF0.3873648002730165
aa(lp1425
F0.2491454268292683
aF0.3924689328603832
aa(lp1426
F0.2506589216562407
aF0.3910220633318601
aa(lp1427
F0.24615068922305763
aF0.400322047776814
aa(lp1428
F0.2512420400943396
aF0.39107395110892124
aa(lp1429
F0.25206410990269035
aF0.39140282970913454
aa(lp1430
F0.28793619972260753
aF0.3720631733266872
aa(lp1431
F0.2756903755284755
aF0.37868281188784736
aa(lp1432
F0.25621886304909564
aF0.3781653913652258
aa(lp1433
F0.25113486842105265
aF0.38818146730812036
aa(lp1434
F0.2478880681818182
aF0.39481819007084334
aa(lp1435
F0.25010250503887127
aF0.3984053537481903
aa(lp1436
F0.2466165709101905
aF0.4077800552330018
aa(lp1437
F0.25161654135338346
aF0.4103042383616293
aa(lp1438
F0.24803555422766654
aF0.41066053128743263
aa(lp1439
F0.24893734939759035
aF0.4127743336106299
aa(lp1440
F0.24664169381107492
aF0.41182787855480363
aa(lp1441
F0.24606842264607934
aF0.4169554248698916
aa(lp1442
F0.24903071364046972
aF0.4175044689419607
aa(lp1443
F0.24839407276995307
aF0.41412645933409736
aa(lp1444
F0.257020493020493
aF0.42185126464063283
aa(lp1445
F0.2519982306104394
aF0.4197795804491448
aa(lp1446
F0.2563758408891489
aF0.42029118609966754
aa(lp1447
F0.2551552132701422
aF0.4250053331842272
aa(lp1448
F0.24981927339901477
aF0.4328335987548949
aa(lp1449
F0.2559722906403941
aF0.43538186089933945
aa(lp1450
F0.25238450029922205
aF0.4311497137897952
aa(lp1451
F0.2566949251980053
aF0.4294461080496098
aa(lp1452
F0.2506589648798521
aF0.43972348906252384
aaa(lp1453
F0.0
aF0.1
aF0.2
aF0.3
aF0.4
aF0.5
aF0.6
aF0.7
aF0.8
aF0.9
aF1.0
aF1.1
aF1.2
aF1.3
aF1.4
aF1.5
aF1.6
aF1.7
aF1.8
aF1.9
aF2.0
aF2.1
aF2.2
aF2.3
aF2.4
aF2.5
aF2.6
aF2.7
aF2.8
aF2.9
aF3.0
aF3.1
aF3.2
aF3.3
aF3.4
aF3.5
aF3.6
aF3.7
aF3.8
aF3.9
aF4.0
aF4.1
aF4.2
aF4.3
aF4.4
aF4.5
aF4.6
aF4.7
aF4.8
aF4.9
aF5.0
aF5.1
aF5.2
aF5.3
aF5.4
aF5.5
aF5.6
aF5.7
aF5.8
aF5.9
aF6.0
aF6.1
aF6.2
aF6.3
aF6.4
aF6.5
aF6.6
aF6.7
aF6.8
aF6.9
aF7.0
aF7.1
aF7.2
aF7.3
aF7.4
aF7.5
aF7.6
aF7.7
aF7.8
aF7.9
aF8.0
aF8.1
aF8.2
aF8.3
aF8.4
aF8.5
aF8.6
aF8.7
aF8.8
aF8.9
aF9.0
aF9.1
aF9.2
aF9.3
aF9.4
aF9.5
aF9.6
aF9.7
aF9.8
aF9.9
aF10.0
aF10.1
aF10.2
aF10.3
aF10.4
aF10.5
aF10.6
aF10.7
aF10.8
aF10.9
aF11.0
aF11.1
aF11.2
aF11.3
aF11.4
aF11.5
aF11.6
aF11.7
aF11.8
aF11.9
aF12.0
aF12.1
aF12.2
aF12.3
aF12.4
aF12.5
aF12.6
aF12.7
aF12.8
aF12.9
aF13.0
aF13.1
aF13.2
aF13.3
aF13.4
aF13.5
aF13.6
aF13.7
aF13.8
aF13.9
aF14.0
aF14.1
aF14.2
aF14.3
aF14.4
aF14.5
aF14.6
aF14.7
aF14.8
aF14.9
aF15.0
aF15.1
aF15.2
aF15.3
aF15.4
aF15.5
aF15.6
aF15.7
aF15.8
aF15.9
aF16.0
aF16.1
aF16.2
aF16.3
aF16.4
aF16.5
aF16.6
aF16.7
aF16.8
aF16.9
aF17.0
aF17.1
aF17.2
aF17.3
aF17.4
aF17.5
aF17.6
aF17.7
aF17.8
aF17.9
aF18.0
aF18.1
aF18.2
aF18.3
aF18.4
aF18.5
aF18.6
aF18.7
aF18.8
aF18.9
aF19.0
aF19.1
aF19.2
aF19.3
aF19.4
aF19.5
aF19.6
aF19.7
aF19.8
aF19.9
aF20.0
aF20.1
aF20.2
aF20.3
aF20.4
aF20.5
aF20.6
aF20.7
aF20.8
aF20.9
aF21.0
aF21.1
aF21.2
aF21.3
aF21.4
aF21.5
aF21.6
aF21.7
aF21.8
aF21.9
aF22.0
aF22.1
aF22.2
aF22.3
aF22.4
aF22.5
aF22.6
aF22.7
aF22.8
aF22.9
aF23.0
aF23.1
aF23.2
aF23.3
aF23.4
aF23.5
aF23.6
aF23.7
aF23.8
aF23.9
aa(lp1454
(lp1455
F0.24870654095462583
aF0.1444433399421827
aa(lp1456
F0.24673742848539595
aF0.1453829623244371
aa(lp1457
F0.2451429411764706
aF0.14353235756140123
aa(lp1458
F0.24584829366217378
aF0.1401475789114498
aa(lp1459
F0.25202650452135955
aF0.14503342995268867
aa(lp1460
F0.24846398559423769
aF0.14502083068447127
aa(lp1461
F0.24995315370483773
aF0.15003852270266602
aa(lp1462
F0.24725364341085274
aF0.14380520681153133
aa(lp1463
F0.252001226993865
aF0.14711178074541742
aa(lp1464
F0.2509482917820868
aF0.1459956424726557
aa(lp1465
F0.24887956860395447
aF0.14403618022094217
aa(lp1466
F0.24813926799007444
aF0.14217671819249794
aa(lp1467
F0.2511608070926322
aF0.14736410773787145
aa(lp1468
F0.24669773755656108
aF0.14093568380053997
aa(lp1469
F0.24801635734507704
aF0.14871405055480133
aa(lp1470
F0.24423517012947907
aF0.14715159519185886
aa(lp1471
F0.24720845830833832
aF0.15106266060541113
aa(lp1472
F0.2484453527096579
aF0.14748806877815293
aa(lp1473
F0.2490406800242866
aF0.1481138859647246
aa(lp1474
F0.2500138345864662
aF0.14872387509727472
aa(lp1475
F0.250643470790378
aF0.14876173047934346
aa(lp1476
F0.2508147492625369
aF0.1514644707001945
aa(lp1477
F0.2520032116788321
aF0.1521841882420676
aa(lp1478
F0.24777495621716286
aF0.14673128475022168
aa(lp1479
F0.24803475467289718
aF0.14681803816946093
aa(lp1480
F0.25105623543123545
aF0.1501037610096423
aa(lp1481
F0.24824757834757835
aF0.15396601114820851
aa(lp1482
F0.25264735294117646
aF0.15828553916343782
aa(lp1483
F0.24982760629004078
aF0.15509214905779747
aa(lp1484
F0.24972083805209513
aF0.1552050331242052
aa(lp1485
F0.25104221784407543
aF0.15736019254923983
aa(lp1486
F0.25288466908684726
aF0.15441248843060978
aa(lp1487
F0.25335058823529416
aF0.15790528078242733
aa(lp1488
F0.2515269822128429
aF0.15799565090276813
aa(lp1489
F0.2513300565981531
aF0.15804008586982898
aa(lp1490
F0.252978947368421
aF0.15760019026632927
aa(lp1491
F0.25779352112676057
aF0.16514715353054346
aa(lp1492
F0.2527168692558553
aF0.15699334767107598
aa(lp1493
F0.25452565632458235
aF0.16301346927445257
aa(lp1494
F0.25643659473839786
aF0.16348666989351607
aa(lp1495
F0.25926062795220894
aF0.16834866107968
aa(lp1496
F0.25668948106591866
aF0.16307390003629374
aa(lp1497
F0.25605027769657995
aF0.1657536195191369
aa(lp1498
F0.25233985973115136
aF0.163233380271031
aa(lp1499
F0.2524526984126984
aF0.16523280193474277
aa(lp1500
F0.25075367647058827
aF0.16662506699176421
aa(lp1501
F0.2573777845590479
aF0.17133770028954973
aa(lp1502
F0.2566023573200993
aF0.16944211925756075
aa(lp1503
F0.2506313799621928
aF0.1667695329610079
aa(lp1504
F0.25800709219858153
aF0.1748307421623025
aa(lp1505
F0.2515280245022971
aF0.1681600359712216
aa(lp1506
F0.25707858484658735
aF0.1759036311871657
aa(lp1507
F0.25266865017225176
aF0.17606944922341808
aa(lp1508
F0.2560409230769231
aF0.17759017282818146
aa(lp1509
F0.2624972030273116
aF0.18124167205332561
aa(lp1510
F0.2568058408215661
aF0.17891404137245284
aa(lp1511
F0.25329591836734694
aF0.17838426681690933
aa(lp1512
F0.24994644696189497
aF0.17853471786388103
aa(lp1513
F0.2525487591751136
aF0.1827572489527802
aa(lp1514
F0.25667296045600285
aF0.18797051089001882
aa(lp1515
F0.2527256815886907
aF0.1856069717343493
aa(lp1516
F0.2537475895316805
aF0.18414099383100113
aa(lp1517
F0.2532118140510311
aF0.18354495423196945
aa(lp1518
F0.25436367027228646
aF0.1883108560744157
aa(lp1519
F0.25867153284671535
aF0.19349595780831386
aa(lp1520
F0.24946549794852668
aF0.1886640948709972
aa(lp1521
F0.2533539682539683
aF0.1950011515120747
aa(lp1522
F0.2533115151515152
aF0.19926075061278092
aa(lp1523
F0.2547455551165547
aF0.1989448472020799
aa(lp1524
F0.25072288170282436
aF0.1990476068470269
aa(lp1525
F0.251594294770206
aF0.20245160170674986
aa(lp1526
F0.25135404742436634
aF0.20542302047102676
aa(lp1527
F0.24937333333333336
aF0.20220690259753288
aa(lp1528
F0.2562040731504572
aF0.2064598875228787
aa(lp1529
F0.25079393173198483
aF0.2082646420869348
aa(lp1530
F0.25052698282910874
aF0.2095636343895124
aa(lp1531
F0.25060298030867484
aF0.22605835786931663
aa(lp1532
F0.24831967213114756
aF0.22665984320691313
aa(lp1533
F0.25059194711538463
aF0.23474251439608848
aa(lp1534
F0.25688493975903615
aF0.2420291816870886
aa(lp1535
F0.25138262370540854
aF0.234414530010009
aa(lp1536
F0.25026874625074985
aF0.24454303563896396
aa(lp1537
F0.25419228486646883
aF0.24374658253247541
aa(lp1538
F0.25136731001206275
aF0.24491459635979246
aa(lp1539
F0.251290282902829
aF0.24782576880538768
aa(lp1540
F0.25420074580484775
aF0.2527713508693953
aa(lp1541
F0.2475015403573629
aF0.2527054275945156
aa(lp1542
F0.2562817164179104
aF0.25615242159313867
aa(lp1543
F0.24561129136924076
aF0.2594476802892775
aa(lp1544
F0.24884013840830452
aF0.26882493875247454
aa(lp1545
F0.24514168765743075
aF0.2620713370612271
aa(lp1546
F0.2526365360303413
aF0.2666912591540683
aa(lp1547
F0.24905473277527365
aF0.2725022774279584
aa(lp1548
F0.2476233766233766
aF0.2718178492720318
aa(lp1549
F0.2485757575757576
aF0.2880475624402418
aa(lp1550
F0.24317901639344264
aF0.27794825247779903
aa(lp1551
F0.24842757660167133
aF0.2872634448328902
aa(lp1552
F0.24287243090007085
aF0.2881407347206624
aa(lp1553
F0.24288767650834403
aF0.2771343440733929
aa(lp1554
F0.24692
aF0.2954099261947405
aa(lp1555
F0.2393733850129199
aF0.2854290187540596
aa(lp1556
F0.24723927272727272
aF0.3006721246635428
aa(lp1557
F0.24603688239387614
aF0.29924216147029786
aa(lp1558
F0.23778877192982456
aF0.2996254373093691
aa(lp1559
F0.24239014084507043
aF0.3069121782758814
aa(lp1560
F0.2417460881934566
aF0.30487392686751563
aa(lp1561
F0.2478161244695898
aF0.30873840287535126
aa(lp1562
F0.23756792717086836
aF0.3086301565281908
aa(lp1563
F0.2444647676161919
aF0.3237397677801865
aa(lp1564
F0.24351428571428574
aF0.3239045928565504
aa(lp1565
F0.24562756183745582
aF0.3186180319765789
aa(lp1566
F0.24418426361802284
aF0.31782066130688474
aa(lp1567
F0.24176152832674574
aF0.31602862539969373
aa(lp1568
F0.23205363443895555
aF0.3225688446683808
aa(lp1569
F0.24208377659574468
aF0.3211496910289706
aa(lp1570
F0.23885865724381627
aF0.32955206594180614
aa(lp1571
F0.2480132450331126
aF0.326932336487059
aa(lp1572
F0.24359406608226566
aF0.3277207465786141
aa(lp1573
F0.24186224489795918
aF0.3235206616822995
aa(lp1574
F0.24164788732394368
aF0.3315612226871968
aa(lp1575
F0.23551197411003236
aF0.3277467488253624
aa(lp1576
F0.23851980499695308
aF0.3220683248280137
aa(lp1577
F0.2440628853267571
aF0.3274981260554499
aa(lp1578
F0.2448805782526713
aF0.33175629013470437
aa(lp1579
F0.2442472989195678
aF0.3297386954468372
aa(lp1580
F0.24461160981448232
aF0.3326840159249582
aa(lp1581
F0.2448537844036697
aF0.3303153378836752
aa(lp1582
F0.24286579841449604
aF0.33012151011633095
aa(lp1583
F0.2432768361581921
aF0.33381681435431865
aa(lp1584
F0.2419258830341633
aF0.3341688609725647
aa(lp1585
F0.23899373040752353
aF0.3234485135089468
aa(lp1586
F0.23874028738690795
aF0.32783163688196026
aa(lp1587
F0.2386671866874675
aF0.3259798029719313
aa(lp1588
F0.24118030973451327
aF0.3396934905554535
aa(lp1589
F0.24072149238045193
aF0.33327151139979755
aa(lp1590
F0.2387175421209118
aF0.3245894344267874
aa(lp1591
F0.23871927236971485
aF0.32531340422926963
aa(lp1592
F0.24131738913801695
aF0.33211874507331307
aa(lp1593
F0.24519200734956362
aF0.32437586970084015
aa(lp1594
F0.24390075258701788
aF0.32892554212612124
aa(lp1595
F0.23711530030688296
aF0.3177810130047487
aa(lp1596
F0.2390855614973262
aF0.3249507192461052
aa(lp1597
F0.23633768494342908
aF0.32096051017000016
aa(lp1598
F0.23335689201053555
aF0.3238384457956103
aa(lp1599
F0.240072
aF0.3298667491297266
aa(lp1600
F0.24248972884141332
aF0.3214395846718444
aa(lp1601
F0.23912164361269322
aF0.32224961482775755
aa(lp1602
F0.24764120561519407
aF0.3273526376294236
aa(lp1603
F0.24053968253968253
aF0.32704147904181297
aa(lp1604
F0.2404739183178326
aF0.325790708876393
aa(lp1605
F0.24110920198549066
aF0.32228501090450573
aa(lp1606
F0.24273660205245154
aF0.3218733723958833
aa(lp1607
F0.2372148206543161
aF0.3279029271332186
aa(lp1608
F0.23561021505376345
aF0.3238662089650076
aa(lp1609
F0.2341261829652997
aF0.33075330052363583
aa(lp1610
F0.23969734789391572
aF0.3304598134589749
aa(lp1611
F0.24265882821841372
aF0.33816686845967886
aa(lp1612
F0.24053609467455622
aF0.3396292505083204
aa(lp1613
F0.24248911798396333
aF0.33354827485343336
aa(lp1614
F0.242147836078131
aF0.33618820042569747
aa(lp1615
F0.2389716494845361
aF0.33443088009421784
aa(lp1616
F0.23950940612320176
aF0.33301942005922786
aa(lp1617
F0.24192616433169256
aF0.34152120514161427
aa(lp1618
F0.24245438534695316
aF0.33223514720506764
aa(lp1619
F0.24449799343305362
aF0.3386895663435572
aa(lp1620
F0.2452921071176885
aF0.33764902470688807
aa(lp1621
F0.24310265363128492
aF0.3345622795582159
aa(lp1622
F0.24462553191489364
aF0.34054477075333733
aa(lp1623
F0.24314905528341496
aF0.3394055193734868
aa(lp1624
F0.2407503438789546
aF0.33803568465014006
aa(lp1625
F0.2421304492512479
aF0.33549166022797217
aa(lp1626
F0.24582316655243316
aF0.34358919270023325
aa(lp1627
F0.24042663043478263
aF0.3409844247138609
aa(lp1628
F0.25140488656195464
aF0.3499456593547816
aa(lp1629
F0.24629598170532507
aF0.3406662895898756
aa(lp1630
F0.23996228373702422
aF0.347588998337038
aa(lp1631
F0.24678852681602173
aF0.34960835485358716
aa(lp1632
F0.2454568756494631
aF0.35500847128630264
aa(lp1633
F0.24361233631977944
aF0.3534977531104058
aa(lp1634
F0.24141158327621656
aF0.35452870437295947
aa(lp1635
F0.2460510876730389
aF0.3529286463814844
aa(lp1636
F0.24699228295819933
aF0.3498071553526672
aa(lp1637
F0.2476484968615791
aF0.3572849461097902
aa(lp1638
F0.24531359123587815
aF0.36193225107274557
aa(lp1639
F0.24844113799869194
aF0.3587117656505111
aa(lp1640
F0.24858115892917654
aF0.3656017182359748
aa(lp1641
F0.24809025394646533
aF0.36770289021122987
aa(lp1642
F0.24841502249913466
aF0.370796458503196
aa(lp1643
F0.24797129506008012
aF0.3697193446839295
aa(lp1644
F0.24611338167435728
aF0.3658607774446065
aa(lp1645
F0.24365532345013477
aF0.3723085843315096
aa(lp1646
F0.24888862954318108
aF0.3726123207326846
aa(lp1647
F0.24752479201331115
aF0.3754861648419039
aa(lp1648
F0.25014432000000003
aF0.3715271447766845
aa(lp1649
F0.2539112086428089
aF0.3807964314494264
aa(lp1650
F0.2468711738984191
aF0.3790415711653117
aa(lp1651
F0.25275689479060265
aF0.38519542017580416
aa(lp1652
F0.2512631399317406
aF0.3867849031753711
aa(lp1653
F0.26134212866884077
aF0.36879260261511315
aa(lp1654
F0.2513747964832302
aF0.3826672990496705
aa(lp1655
F0.2448316215375039
aF0.37648733599934886
aa(lp1656
F0.25104029304029307
aF0.3908533056069052
aa(lp1657
F0.24988320209973752
aF0.3888225155668484
aa(lp1658
F0.25128369028006586
aF0.39061638862973996
aa(lp1659
F0.25569284064665126
aF0.3942200701483914
aa(lp1660
F0.2447765814266487
aF0.39762164929055316
aa(lp1661
F0.25194890016920474
aF0.40356776152985413
aa(lp1662
F0.2494690089492874
aF0.3993421336469293
aa(lp1663
F0.24374933333333335
aF0.40098443528230426
aa(lp1664
F0.24953407934893182
aF0.40777626334145156
aa(lp1665
F0.25970614453995544
aF0.4005639009954641
aa(lp1666
F0.2564081567116249
aF0.4024582821647643
aa(lp1667
F0.2515639171869865
aF0.40774170169986007
aa(lp1668
F0.24661501288659796
aF0.4027528479988553
aa(lp1669
F0.24839424031777557
aF0.40929213140218346
aa(lp1670
F0.24712980445043828
aF0.41593895932424885
aa(lp1671
F0.24888579291365667
aF0.4206876396888075
aa(lp1672
F0.2536278481012658
aF0.43239274707045855
aa(lp1673
F0.2500829817158931
aF0.4292032522392947
aa(lp1674
F0.25100505415162455
aF0.4355575887526083
aa(lp1675
F0.2471113843991567
aF0.4304808459927795
aa(lp1676
F0.25261740331491717
aF0.43036044261064715
aa(lp1677
F0.2516012314378848
aF0.4416681347893892
aa(lp1678
F0.24878662304616506
aF0.444228916314644
aa(lp1679
F0.24996026735982177
aF0.44983527972064946
aa(lp1680
F0.2546178650852483
aF0.45273075738192126
aa(lp1681
F0.2512386728505173
aF0.4457445236291958
aa(lp1682
F0.2553800070896845
aF0.4467732644973794
aa(lp1683
F0.2531380065717415
aF0.45529200762908867
aa(lp1684
F0.25277744916820705
aF0.45827572061336386
aa(lp1685
F0.2515186932849365
aF0.4561718188553816
aa(lp1686
F0.255846183061147
aF0.4678765435389704
aa(lp1687
F0.2514492915734527
aF0.4662448332550012
aa(lp1688
F0.2570137393241738
aF0.4673728297573689
aa(lp1689
F0.2537150964812713
aF0.47275076554550877
aa(lp1690
F0.2546397003745319
aF0.4727511912139568
aa(lp1691
F0.25512122328666176
aF0.47232235220530583
aa(lp1692
F0.2544624255952381
aF0.4752581004870097
aa(lp1693
F0.2530574925816024
aF0.47619544563631433
aa(lp1694
F0.2517746374116772
aF0.4788348727416619
aaa.