(lp0
(lp1
F0.0
aF0.1
aF0.2
aF0.3
aF0.4
aF0.5
aF0.6
aF0.7
aF0.8
aF0.9
aF1.0
aF1.1
aF1.2
aF1.3
aF1.4
aF1.5
aF1.6
aF1.7
aF1.8
aF1.9
aF2.0
aF2.1
aF2.2
aF2.3
aF2.4
aF2.5
aF2.6
aF2.7
aF2.8
aF2.9
aF3.0
aF3.1
aF3.2
aF3.3
aF3.4
aF3.5
aF3.6
aF3.7
aF3.8
aF3.9
aF4.0
aF4.1
aF4.2
aF4.3
aF4.4
aF4.5
aF4.6
aF4.7
aF4.8
aF4.9
aF5.0
aF5.1
aF5.2
aF5.3
aF5.4
aF5.5
aF5.6
aF5.7
aF5.8
aF5.9
aF6.0
aF6.1
aF6.2
aF6.3
aF6.4
aF6.5
aF6.6
aF6.7
aF6.8
aF6.9
aF7.0
aF7.1
aF7.2
aF7.3
aF7.4
aF7.5
aF7.6
aF7.7
aF7.8
aF7.9
aF8.0
aF8.1
aF8.2
aF8.3
aF8.4
aF8.5
aF8.6
aF8.7
aF8.8
aF8.9
aF9.0
aF9.1
aF9.2
aF9.3
aF9.4
aF9.5
aF9.6
aF9.7
aF9.8
aF9.9
aF10.0
aF10.1
aF10.2
aF10.3
aF10.4
aF10.5
aF10.6
aF10.7
aF10.8
aF10.9
aF11.0
aF11.1
aF11.2
aF11.3
aF11.4
aF11.5
aF11.6
aF11.7
aF11.8
aF11.9
aF12.0
aF12.1
aF12.2
aF12.3
aF12.4
aF12.5
aF12.6
aF12.7
aF12.8
aF12.9
aF13.0
aF13.1
aF13.2
aF13.3
aF13.4
aF13.5
aF13.6
aF13.7
aF13.8
aF13.9
aF14.0
aF14.1
aF14.2
aF14.3
aF14.4
aF14.5
aF14.6
aF14.7
aF14.8
aF14.9
aF15.0
aF15.1
aF15.2
aF15.3
aF15.4
aF15.5
aF15.6
aF15.7
aF15.8
aF15.9
aF16.0
aF16.1
aF16.2
aF16.3
aF16.4
aF16.5
aF16.6
aF16.7
aF16.8
aF16.9
aF17.0
aF17.1
aF17.2
aF17.3
aF17.4
aF17.5
aF17.6
aF17.7
aF17.8
aF17.9
aF18.0
aF18.1
aF18.2
aF18.3
aF18.4
aF18.5
aF18.6
aF18.7
aF18.8
aF18.9
aF19.0
aF19.1
aF19.2
aF19.3
aF19.4
aF19.5
aF19.6
aF19.7
aF19.8
aF19.9
aF20.0
aF20.1
aF20.2
aF20.3
aF20.4
aF20.5
aF20.6
aF20.7
aF20.8
aF20.9
aF21.0
aF21.1
aF21.2
aF21.3
aF21.4
aF21.5
aF21.6
aF21.7
aF21.8
aF21.9
aF22.0
aF22.1
aF22.2
aF22.3
aF22.4
aF22.5
aF22.6
aF22.7
aF22.8
aF22.9
aF23.0
aF23.1
aF23.2
aF23.3
aF23.4
aF23.5
aF23.6
aF23.7
aF23.8
aF23.9
aa(lp2
(lp3
F0.2528263841421736
aF0.14820360228487525
aa(lp4
F0.2513442219880576
aF0.1422514360877503
aa(lp5
F0.2503531480830109
aF0.1446932539331137
aa(lp6
F0.2570301470588235
aF0.1560568326705007
aa(lp7
F0.2521573208722741
aF0.1476989964414521
aa(lp8
F0.25623230707716915
aF0.15070304844904522
aa(lp9
F0.2519751623996943
aF0.14605173168371513
aa(lp10
F0.2576665261382799
aF0.15457928538838317
aa(lp11
F0.25175801282051286
aF0.14742594600343406
aa(lp12
F0.2530762114537445
aF0.1472994835866119
aa(lp13
F0.25138384715588363
aF0.15079089594608613
aa(lp14
F0.24642343173431733
aF0.14511362015609533
aa(lp15
F0.24865563218390804
aF0.1467852054385973
aa(lp16
F0.2510390404515522
aF0.1482458304298363
aa(lp17
F0.2515016408813877
aF0.14967887960604365
aa(lp18
F0.24876017029328287
aF0.14706650611280103
aa(lp19
F0.24403322099181513
aF0.14789298699071704
aa(lp20
F0.24781001548786782
aF0.1495750628428134
aa(lp21
F0.25112684210526315
aF0.151903787402421
aa(lp22
F0.25688479999999997
aF0.15717992856891946
aa(lp23
F0.2490725388601036
aF0.1508358324082479
aa(lp24
F0.2516787103946637
aF0.15240957912120282
aa(lp25
F0.25469363839285714
aF0.15622059666609991
aa(lp26
F0.25149220623501195
aF0.15362782117090995
aa(lp27
F0.2511992903607333
aF0.15804849798549953
aa(lp28
F0.2500923355461678
aF0.15244954196654725
aa(lp29
F0.2508621142481943
aF0.15572237047036436
aa(lp30
F0.25583934426229504
aF0.16224966512011887
aa(lp31
F0.2502189882189882
aF0.1582712711901155
aa(lp32
F0.25447672778561353
aF0.1615596787686297
aa(lp33
F0.25086335825968725
aF0.1630112836439399
aa(lp34
F0.24526338958180482
aF0.1623771159522735
aa(lp35
F0.24871524163568773
aF0.16558368967644407
aa(lp36
F0.2509162962962963
aF0.17090936639266555
aa(lp37
F0.24809546925566345
aF0.17269456488433368
aa(lp38
F0.2562748710390567
aF0.16831869545523176
aa(lp39
F0.2536799027552674
aF0.1735596140472039
aa(lp40
F0.2457097032878909
aF0.17388427387292152
aa(lp41
F0.2462104832104832
aF0.17701490838811165
aa(lp42
F0.25125020850708923
aF0.18310448164879256
aa(lp43
F0.24544419642857143
aF0.17747801729519103
aa(lp44
F0.25312212529738304
aF0.1844878995315811
aa(lp45
F0.24667569786535307
aF0.18276584716410008
aa(lp46
F0.24840110323089046
aF0.1875765350389132
aa(lp47
F0.24606834249803614
aF0.1833384355798073
aa(lp48
F0.2480181818181818
aF0.18943648651282707
aa(lp49
F0.23955256916996046
aF0.18384407252261656
aa(lp50
F0.24093106244931062
aF0.19248081187111055
aa(lp51
F0.24936470588235296
aF0.19560203525655653
aa(lp52
F0.24650712489522214
aF0.2011373411992329
aa(lp53
F0.23672741679873216
aF0.19215690504100952
aa(lp54
F0.2407388973966309
aF0.19526025851360193
aa(lp55
F0.2427746371275783
aF0.1969918355430143
aa(lp56
F0.2372121433796635
aF0.19505255228794346
aa(lp57
F0.2468958858102435
aF0.21007807890201222
aa(lp58
F0.24472972972972976
aF0.20437219604787862
aa(lp59
F0.23927126099706744
aF0.19961735889739218
aa(lp60
F0.24682690854119427
aF0.20712438500544783
aa(lp61
F0.241858687815429
aF0.20370643560474627
aa(lp62
F0.24203276247207745
aF0.20709935655664954
aa(lp63
F0.23507824933687002
aF0.19720164863241693
aa(lp64
F0.2399517195767196
aF0.2033823774234444
aa(lp65
F0.23803322475570035
aF0.20727100794304823
aa(lp66
F0.2307452380952381
aF0.20382754532257016
aa(lp67
F0.2347872763419483
aF0.20854353258705907
aa(lp68
F0.24091880597014925
aF0.20578085535025112
aa(lp69
F0.2362233656174334
aF0.20872440971635262
aa(lp70
F0.24277565217391306
aF0.20949455825983213
aa(lp71
F0.23784084585420143
aF0.20823787483973624
aa(lp72
F0.23835030777839955
aF0.20892570718780726
aa(lp73
F0.23862389610389612
aF0.20663864089518183
aa(lp74
F0.23520385818561
aF0.20846842855063977
aa(lp75
F0.24079645569620253
aF0.20654489685051483
aa(lp76
F0.23607968901846452
aF0.2081562613402459
aa(lp77
F0.2403035622096025
aF0.21670722278155047
aa(lp78
F0.23663301435406697
aF0.2099386784137611
aa(lp79
F0.23678208119458702
aF0.20930554467725263
aa(lp80
F0.2380558510638298
aF0.20959590829223076
aa(lp81
F0.23473298429319372
aF0.20792870402260494
aa(lp82
F0.2372069868995633
aF0.2087284203647924
aa(lp83
F0.23568498452012385
aF0.2047141001163565
aa(lp84
F0.23698620961386918
aF0.2087534095863549
aa(lp85
F0.2318100445524504
aF0.21080583397939157
aa(lp86
F0.23007813765182186
aF0.21043214799611898
aa(lp87
F0.23753333333333332
aF0.21563617161965376
aa(lp88
F0.23623538461538462
aF0.2116689811421754
aa(lp89
F0.2366027184466019
aF0.21487499535537125
aa(lp90
F0.23969514047076687
aF0.2184740715471667
aa(lp91
F0.238688618468146
aF0.21557258628207684
aa(lp92
F0.23930269523151348
aF0.21245606759140617
aa(lp93
F0.23701502286087525
aF0.2111898598712307
aa(lp94
F0.23417801590044934
aF0.21649582528485747
aa(lp95
F0.23495211544768776
aF0.21249955767196155
aa(lp96
F0.23933160779537152
aF0.21350223214526712
aa(lp97
F0.23108248081841434
aF0.2101268281031598
aa(lp98
F0.23205474220241884
aF0.21254591472375212
aa(lp99
F0.22694889162561577
aF0.21197694809038878
aa(lp100
F0.232477969348659
aF0.21779596249129687
aa(lp101
F0.23246469318532226
aF0.21602712825976492
aa(lp102
F0.23440214985773
aF0.22003200594150024
aa(lp103
F0.23834198516828292
aF0.21706636899281986
aa(lp104
F0.2326993233303913
aF0.21540778956643758
aa(lp105
F0.2327497784342688
aF0.21717159050601412
aa(lp106
F0.23568750000000002
aF0.22022436427944694
aa(lp107
F0.23416919044845663
aF0.2206935989951798
aa(lp108
F0.23526487163431434
aF0.2288431451166836
aa(lp109
F0.23489003645200487
aF0.22745405684944384
aa(lp110
F0.2398285472972973
aF0.2259805123053583
aa(lp111
F0.23778341748604837
aF0.22196233982166846
aa(lp112
F0.24189165370658372
aF0.2206043310116475
aa(lp113
F0.23493393619693545
aF0.21892194269022291
aa(lp114
F0.23340904419321684
aF0.22083987763828533
aa(lp115
F0.23752126528442316
aF0.22698219648600315
aa(lp116
F0.23653725
aF0.22383601643390805
aa(lp117
F0.23773644659151907
aF0.2310894938008106
aa(lp118
F0.23660834207764952
aF0.22826969889340168
aa(lp119
F0.23797877297437225
aF0.22928348994670286
aa(lp120
F0.2414415789473684
aF0.23519237953435243
aa(lp121
F0.240667488899852
aF0.22910155019071146
aa(lp122
F0.24136125397991673
aF0.22934156447764822
aa(lp123
F0.23796311858076563
aF0.2278649618805953
aa(lp124
F0.2360236470014627
aF0.23018527291069193
aa(lp125
F0.22952542787286065
aF0.23030124978621794
aa(lp126
F0.2347897979300148
aF0.23492828776841024
aa(lp127
F0.23584453461831095
aF0.23663846151078236
aa(lp128
F0.23865746711374775
aF0.2411190324319297
aa(lp129
F0.23562789500772002
aF0.23952599584653797
aa(lp130
F0.23866333915647617
aF0.24243400512483643
aa(lp131
F0.24186517130884888
aF0.24077806634106705
aa(lp132
F0.2458450248756219
aF0.24620756351511044
aa(lp133
F0.24341410579345088
aF0.24920237344421134
aa(lp134
F0.2352367708589712
aF0.24421609042981515
aa(lp135
F0.2367110655737705
aF0.24828695600897713
aa(lp136
F0.23983366683341673
aF0.24828594912219598
aa(lp137
F0.2365455254942768
aF0.25292386637876
aa(lp138
F0.23624252136752136
aF0.2582366909693704
aa(lp139
F0.23831400839454353
aF0.2562806160586428
aa(lp140
F0.23909040735873852
aF0.25988808807404684
aa(lp141
F0.2379215534979424
aF0.2586912903601727
aa(lp142
F0.23544284550638067
aF0.2618471627550153
aa(lp143
F0.23811748565727114
aF0.2570533486806348
aa(lp144
F0.23976795720835456
aF0.26135025360542913
aa(lp145
F0.24179953137203852
aF0.2643446139153025
aa(lp146
F0.23827231121281464
aF0.26403265608215076
aa(lp147
F0.23854251463618625
aF0.2735964987615084
aa(lp148
F0.2401264126149803
aF0.270693305155925
aa(lp149
F0.2416510474090408
aF0.27533737894296456
aa(lp150
F0.23628656330749354
aF0.2709981927444161
aa(lp151
F0.23911201011378003
aF0.2699713221152826
aa(lp152
F0.23781958900453698
aF0.2752855761500105
aa(lp153
F0.23590451478982877
aF0.27395129954815356
aa(lp154
F0.24301273547360042
aF0.2823749076652414
aa(lp155
F0.23720216130732738
aF0.27845513423679374
aa(lp156
F0.23719284802043422
aF0.2769487736925495
aa(lp157
F0.23766666666666666
aF0.28402859681825876
aa(lp158
F0.24098041237113402
aF0.28090261583917314
aa(lp159
F0.238001295672454
aF0.2822763550868916
aa(lp160
F0.2440291485553567
aF0.2867321306571125
aa(lp161
F0.23911128126595202
aF0.28399877361747317
aa(lp162
F0.24682647584973166
aF0.28937078324987425
aa(lp163
F0.24195287560172285
aF0.2870653898899986
aa(lp164
F0.24186831275720164
aF0.2912123512861064
aa(lp165
F0.24438621047174702
aF0.29346376385594714
aa(lp166
F0.24292801605216954
aF0.2923158626513508
aa(lp167
F0.2447675962815405
aF0.3000316205646798
aa(lp168
F0.2403749047498095
aF0.2934984230788016
aa(lp169
F0.23914073107049608
aF0.2983418453027422
aa(lp170
F0.2435157894736842
aF0.29991032077640184
aa(lp171
F0.23968520461699894
aF0.30324870749971344
aa(lp172
F0.24283044619422572
aF0.30684124154144615
aa(lp173
F0.24047796863330845
aF0.2993639398809613
aa(lp174
F0.23992355694227768
aF0.3060364484976183
aa(lp175
F0.2465303336703741
aF0.3052672491287503
aa(lp176
F0.24198165362035226
aF0.3005014753427126
aa(lp177
F0.24874968742185546
aF0.30803544686860485
aa(lp178
F0.24641745635910225
aF0.3079938114180254
aa(lp179
F0.24659989727786338
aF0.3115955387498436
aa(lp180
F0.2462379510471865
aF0.31371212275700366
aa(lp181
F0.2414819842053307
aF0.3107083265743425
aa(lp182
F0.24509215442092153
aF0.311859468075473
aa(lp183
F0.24554342198164275
aF0.3088482508488782
aa(lp184
F0.2422095238095238
aF0.3123411636311003
aa(lp185
F0.24692642642642643
aF0.3182993373815979
aa(lp186
F0.24183730814639906
aF0.3127310720203826
aa(lp187
F0.24749232673267327
aF0.318716279454527
aa(lp188
F0.24574981640146878
aF0.319106406556308
aa(lp189
F0.24749754781755762
aF0.32142657526349827
aa(lp190
F0.24940421961160394
aF0.32122917720709154
aa(lp191
F0.2447083916083916
aF0.31779371160095105
aa(lp192
F0.24339460491764145
aF0.32107144628478834
aa(lp193
F0.24717825189263593
aF0.3202276634280224
aa(lp194
F0.2508327214318494
aF0.32047784606316865
aa(lp195
F0.24500433988122428
aF0.31975797582951626
aa(lp196
F0.24800567279328342
aF0.32161297302237585
aa(lp197
F0.24707928505957835
aF0.3241188221971156
aa(lp198
F0.2482126215788283
aF0.3235523890299599
aa(lp199
F0.2508193013882669
aF0.3238641272814929
aa(lp200
F0.24973337795626954
aF0.32515901535735914
aa(lp201
F0.24845882088208823
aF0.3274621610296285
aa(lp202
F0.2517635180614763
aF0.32850572368077785
aa(lp203
F0.24927572731220146
aF0.3252753020321712
aa(lp204
F0.24873810563072896
aF0.32776802088271506
aa(lp205
F0.24561452396031247
aF0.32301414145967194
aa(lp206
F0.25004202542025417
aF0.3228256932323496
aa(lp207
F0.2519464398235665
aF0.32650403993992383
aa(lp208
F0.2602510552763819
aF0.3269267926473687
aa(lp209
F0.2500579023284566
aF0.32663334910952385
aa(lp210
F0.25014616977225673
aF0.3281798081831015
aa(lp211
F0.2508505485406748
aF0.32927701091385914
aa(lp212
F0.2532052163364335
aF0.3288293310512913
aa(lp213
F0.25229730286184887
aF0.3336237105017437
aa(lp214
F0.25043214140593256
aF0.33041702906165415
aa(lp215
F0.25003516437786105
aF0.3352367020806315
aa(lp216
F0.24982927337080993
aF0.33727539397272877
aa(lp217
F0.2532239540607055
aF0.33648841224904036
aa(lp218
F0.25290146060481383
aF0.33796731883533776
aa(lp219
F0.25241514360313316
aF0.33601400385563945
aa(lp220
F0.25196288826139573
aF0.3378967637484449
aa(lp221
F0.2499680979133226
aF0.33792761122015247
aa(lp222
F0.25359120489055414
aF0.33843765695693
aa(lp223
F0.25456849728424863
aF0.3438833137653708
aa(lp224
F0.25120810864789295
aF0.3406433512617664
aa(lp225
F0.2509644372600525
aF0.3440929783015669
aa(lp226
F0.2568947579031613
aF0.34626109249385273
aa(lp227
F0.2601915979583824
aF0.3467548287346744
aa(lp228
F0.2709151870041556
aF0.3467801675225892
aa(lp229
F0.2587224371373308
aF0.34460567709017864
aa(lp230
F0.2547694512694513
aF0.3530523832766452
aa(lp231
F0.2555560859188544
aF0.35042607819743904
aa(lp232
F0.2533766949152543
aF0.360768984047838
aa(lp233
F0.2559995786812724
aF0.3627357550356465
aa(lp234
F0.25293450777202076
aF0.35926769172421297
aa(lp235
F0.2564757575757576
aF0.3689806031370966
aa(lp236
F0.2555855855855856
aF0.3726360255847622
aa(lp237
F0.26166427640156453
aF0.37622500005240156
aa(lp238
F0.27377963236847663
aF0.37641280024320584
aa(lp239
F0.2574782899131597
aF0.3788202982996629
aa(lp240
F0.26271329672952975
aF0.3936441586706616
aa(lp241
F0.25483659184166063
aF0.39413432218454636
aa(lp242
F0.2567498745609634
aF0.4031932587741737
aaa(lp243
F0.0
aF0.1
aF0.2
aF0.3
aF0.4
aF0.5
aF0.6
aF0.7
aF0.8
aF0.9
aF1.0
aF1.1
aF1.2
aF1.3
aF1.4
aF1.5
aF1.6
aF1.7
aF1.8
aF1.9
aF2.0
aF2.1
aF2.2
aF2.3
aF2.4
aF2.5
aF2.6
aF2.7
aF2.8
aF2.9
aF3.0
aF3.1
aF3.2
aF3.3
aF3.4
aF3.5
aF3.6
aF3.7
aF3.8
aF3.9
aF4.0
aF4.1
aF4.2
aF4.3
aF4.4
aF4.5
aF4.6
aF4.7
aF4.8
aF4.9
aF5.0
aF5.1
aF5.2
aF5.3
aF5.4
aF5.5
aF5.6
aF5.7
aF5.8
aF5.9
aF6.0
aF6.1
aF6.2
aF6.3
aF6.4
aF6.5
aF6.6
aF6.7
aF6.8
aF6.9
aF7.0
aF7.1
aF7.2
aF7.3
aF7.4
aF7.5
aF7.6
aF7.7
aF7.8
aF7.9
aF8.0
aF8.1
aF8.2
aF8.3
aF8.4
aF8.5
aF8.6
aF8.7
aF8.8
aF8.9
aF9.0
aF9.1
aF9.2
aF9.3
aF9.4
aF9.5
aF9.6
aF9.7
aF9.8
aF9.9
aF10.0
aF10.1
aF10.2
aF10.3
aF10.4
aF10.5
aF10.6
aF10.7
aF10.8
aF10.9
aF11.0
aF11.1
aF11.2
aF11.3
aF11.4
aF11.5
aF11.6
aF11.7
aF11.8
aF11.9
aF12.0
aF12.1
aF12.2
aF12.3
aF12.4
aF12.5
aF12.6
aF12.7
aF12.8
aF12.9
aF13.0
aF13.1
aF13.2
aF13.3
aF13.4
aF13.5
aF13.6
aF13.7
aF13.8
aF13.9
aF14.0
aF14.1
aF14.2
aF14.3
aF14.4
aF14.5
aF14.6
aF14.7
aF14.8
aF14.9
aF15.0
aF15.1
aF15.2
aF15.3
aF15.4
aF15.5
aF15.6
aF15.7
aF15.8
aF15.9
aF16.0
aF16.1
aF16.2
aF16.3
aF16.4
aF16.5
aF16.6
aF16.7
aF16.8
aF16.9
aF17.0
aF17.1
aF17.2
aF17.3
aF17.4
aF17.5
aF17.6
aF17.7
aF17.8
aF17.9
aF18.0
aF18.1
aF18.2
aF18.3
aF18.4
aF18.5
aF18.6
aF18.7
aF18.8
aF18.9
aF19.0
aF19.1
aF19.2
aF19.3
aF19.4
aF19.5
aF19.6
aF19.7
aF19.8
aF19.9
aF20.0
aF20.1
aF20.2
aF20.3
aF20.4
aF20.5
aF20.6
aF20.7
aF20.8
aF20.9
aF21.0
aF21.1
aF21.2
aF21.3
aF21.4
aF21.5
aF21.6
aF21.7
aF21.8
aF21.9
aF22.0
aF22.1
aF22.2
aF22.3
aF22.4
aF22.5
aF22.6
aF22.7
aF22.8
aF22.9
aF23.0
aF23.1
aF23.2
aF23.3
aF23.4
aF23.5
aF23.6
aF23.7
aF23.8
aF23.9
aa(lp244
(lp245
F0.25003870343492984
aF0.14813135981212605
aa(lp246
F0.2492823800974609
aF0.14796248995934716
aa(lp247
F0.25060066740823134
aF0.15040616179932242
aa(lp248
F0.24994288079470198
aF0.15094297689307634
aa(lp249
F0.25613434137830765
aF0.1510790141253882
aa(lp250
F0.25833660039204703
aF0.15563908134922072
aa(lp251
F0.2505867918812481
aF0.14830790900682803
aa(lp252
F0.25143583852970136
aF0.14700392078783783
aa(lp253
F0.2509975911906401
aF0.14610053947947008
aa(lp254
F0.2541519129782445
aF0.15295969803016693
aa(lp255
F0.24965583038869257
aF0.14983372990336502
aa(lp256
F0.24801268742791235
aF0.14867319165165702
aa(lp257
F0.2564585188182922
aF0.15357139143235363
aa(lp258
F0.24839178644763857
aF0.1449047632097533
aa(lp259
F0.25342492155983865
aF0.15086338840685298
aa(lp260
F0.2527714158899246
aF0.15445985251421718
aa(lp261
F0.24631140939597315
aF0.15178750999724586
aa(lp262
F0.25669798994974874
aF0.1563617447449605
aa(lp263
F0.2532527200791296
aF0.15474818071932991
aa(lp264
F0.2532462203023758
aF0.15378590526721173
aa(lp265
F0.25128458289334743
aF0.15571429675313384
aa(lp266
F0.24447896803140776
aF0.14519177101716388
aa(lp267
F0.24653384798099764
aF0.15001540239928784
aa(lp268
F0.2441212121212121
aF0.15171123942496598
aa(lp269
F0.24921297429620562
aF0.15558490845350115
aa(lp270
F0.24545854271356782
aF0.15498217343164314
aa(lp271
F0.25056990595611284
aF0.16281851508776998
aa(lp272
F0.2413057627118644
aF0.154121678966393
aa(lp273
F0.2402542857142857
aF0.15434434519508508
aa(lp274
F0.24872485207100592
aF0.16086661964279628
aa(lp275
F0.24792820884699054
aF0.15812827987884573
aa(lp276
F0.24699922480620157
aF0.16272163258876918
aa(lp277
F0.24171534044298607
aF0.16490721435327924
aa(lp278
F0.2534240254574383
aF0.17413880681844646
aa(lp279
F0.2546527331189711
aF0.17247144873306766
aa(lp280
F0.25139326702371845
aF0.17382703787688475
aa(lp281
F0.24189704769114306
aF0.16974071581360095
aa(lp282
F0.24640603448275863
aF0.177603366487068
aa(lp283
F0.24773425366695428
aF0.1736813038116695
aa(lp284
F0.24225233644859812
aF0.17963854121631684
aa(lp285
F0.24176886792452829
aF0.18376726662790596
aa(lp286
F0.238019550342131
aF0.18445259258928606
aa(lp287
F0.2459425287356322
aF0.18264135576512713
aa(lp288
F0.24639716981132073
aF0.19053205111945354
aa(lp289
F0.24957142857142858
aF0.19076481268453616
aa(lp290
F0.24076739926739926
aF0.19247683427316242
aa(lp291
F0.24208257713248638
aF0.19075258829541364
aa(lp292
F0.2318330152671756
aF0.1943547986371012
aa(lp293
F0.23718982742960945
aF0.19454144995596745
aa(lp294
F0.23822784810126582
aF0.2033144241124752
aa(lp295
F0.2339304952215465
aF0.19663003981128957
aa(lp296
F0.24228214971209214
aF0.20337753503272943
aa(lp297
F0.2362861010830325
aF0.20313883430691987
aa(lp298
F0.23679307282415632
aF0.20386355957075916
aa(lp299
F0.23748262910798124
aF0.20855851924092794
aa(lp300
F0.23570815811606394
aF0.20470184388837726
aa(lp301
F0.23734497816593886
aF0.20886690799804722
aa(lp302
F0.23410938775510204
aF0.20924395365742404
aa(lp303
F0.23305142405063292
aF0.20306950484611305
aa(lp304
F0.24083589743589745
aF0.2153512508492822
aa(lp305
F0.23067630465444286
aF0.20442684809013717
aa(lp306
F0.2324651515151515
aF0.20857512268269157
aa(lp307
F0.239153905645785
aF0.21624307353530237
aa(lp308
F0.23600282286520818
aF0.20961568612041426
aa(lp309
F0.235302075876879
aF0.21481768528489556
aa(lp310
F0.23277719528178245
aF0.21014976431169163
aa(lp311
F0.2350156037991859
aF0.21678186395183882
aa(lp312
F0.2316543287327478
aF0.21122369760537993
aa(lp313
F0.23712820512820512
aF0.21103446965589917
aa(lp314
F0.23232747804265996
aF0.21113837427755422
aa(lp315
F0.2333320399113082
aF0.20822893149975386
aa(lp316
F0.22269735391400222
aF0.204580580519517
aa(lp317
F0.2314304068522484
aF0.21087722505161408
aa(lp318
F0.2354374667376264
aF0.21321924748620724
aa(lp319
F0.23531852986217458
aF0.21145969563759673
aa(lp320
F0.22921766233766236
aF0.2127597883682618
aa(lp321
F0.23353974221267454
aF0.2184519180365819
aa(lp322
F0.22996260737746338
aF0.21251926128485538
aa(lp323
F0.23117068170169144
aF0.21819008904022474
aa(lp324
F0.22701053687907677
aF0.2153368948939616
aa(lp325
F0.22944601366742598
aF0.213683116274484
aa(lp326
F0.2308932754880694
aF0.21033923466547352
aa(lp327
F0.23444477868500216
aF0.2155149671253863
aa(lp328
F0.2329608770421324
aF0.216000783988831
aa(lp329
F0.23312680237489397
aF0.2143863548789665
aa(lp330
F0.22947018447018447
aF0.2160121307571818
aa(lp331
F0.2304700674536256
aF0.21867043591280985
aa(lp332
F0.2326271676300578
aF0.21792993497969004
aa(lp333
F0.23491477974475092
aF0.2214474115424095
aa(lp334
F0.23072681704260653
aF0.22163763220100163
aa(lp335
F0.2287460674157303
aF0.21422048938378327
aa(lp336
F0.22895217071376012
aF0.2159646945121879
aa(lp337
F0.23221615384615388
aF0.22058876978780687
aa(lp338
F0.23210507114191903
aF0.2186098979830784
aa(lp339
F0.23456834532374102
aF0.22506057931418882
aa(lp340
F0.2310725835429393
aF0.22096335167058107
aa(lp341
F0.23664302059496567
aF0.22931301768343446
aa(lp342
F0.23272900623395673
aF0.22610567388962083
aa(lp343
F0.23041180895073335
aF0.22889730765710373
aa(lp344
F0.23118848758465013
aF0.23070437589744833
aa(lp345
F0.23063623595505617
aF0.22592421675808755
aa(lp346
F0.23411628746840016
aF0.23235429158756699
aa(lp347
F0.22933607436539147
aF0.23097782292186114
aa(lp348
F0.23359421288322427
aF0.23328367475949924
aa(lp349
F0.22980730782488798
aF0.2290240352430091
aa(lp350
F0.232602621593653
aF0.2349685016407757
aa(lp351
F0.23106943475226796
aF0.23632180206238265
aa(lp352
F0.23518505825908156
aF0.23832980728599704
aa(lp353
F0.23643103448275862
aF0.23867515149895294
aa(lp354
F0.23621564555209415
aF0.2430893377470988
aa(lp355
F0.23645469686875417
aF0.23989010753195752
aa(lp356
F0.2281961861667744
aF0.23460261984599032
aa(lp357
F0.2331481359287364
aF0.24090119613511546
aa(lp358
F0.2317951845906902
aF0.23932880838982815
aa(lp359
F0.23311949685534591
aF0.2439527461175418
aa(lp360
F0.23395715709066756
aF0.24598663326544934
aa(lp361
F0.23087101063829787
aF0.2462562087945119
aa(lp362
F0.23617121261912585
aF0.24622074130968977
aa(lp363
F0.23080374753451677
aF0.2501272414352673
aa(lp364
F0.23282547321142125
aF0.24841757404969408
aa(lp365
F0.2296248800767509
aF0.24923129738922067
aa(lp366
F0.23764873729091507
aF0.2557091208016787
aa(lp367
F0.23032600969305334
aF0.25215684218908874
aa(lp368
F0.2318283950617284
aF0.25170724662143856
aa(lp369
F0.23597069597069598
aF0.2624289894252436
aa(lp370
F0.23781895424836602
aF0.2596705394320318
aa(lp371
F0.23326837270341205
aF0.2618649346533949
aa(lp372
F0.23681399046104928
aF0.26018063686430565
aa(lp373
F0.2341469638242894
aF0.2635304951079569
aa(lp374
F0.2366943231441048
aF0.264966197730356
aa(lp375
F0.2341585404215162
aF0.26197236948041963
aa(lp376
F0.2394312101910828
aF0.26904963897460893
aa(lp377
F0.2387489119517911
aF0.27361416731089855
aa(lp378
F0.2315224071702945
aF0.2690658151499816
aa(lp379
F0.23587202089454784
aF0.2749037060980631
aa(lp380
F0.23393238434163702
aF0.27566722989908576
aa(lp381
F0.24014451656986677
aF0.28391415496972056
aa(lp382
F0.23331707317073172
aF0.27676202396545124
aa(lp383
F0.23069619834710745
aF0.2814029206883225
aa(lp384
F0.23941182202013642
aF0.28311580217826143
aa(lp385
F0.23799077901430843
aF0.28212146875729943
aa(lp386
F0.23440572951365757
aF0.2867301551631037
aa(lp387
F0.2403
aF0.2889474028087646
aa(lp388
F0.2363291015625
aF0.2869679978790004
aa(lp389
F0.24020631150322364
aF0.29572633066492815
aa(lp390
F0.23564362416107382
aF0.29586540216173857
aa(lp391
F0.2381852723604573
aF0.2960129785264173
aa(lp392
F0.24316946308724832
aF0.3018102079426334
aa(lp393
F0.2367282644628099
aF0.29799293375723224
aa(lp394
F0.23790071162317858
aF0.3035178770087525
aa(lp395
F0.23928329065300896
aF0.2992143016284456
aa(lp396
F0.23661048440610485
aF0.30327441856086823
aa(lp397
F0.23871654305062884
aF0.3022951056774849
aa(lp398
F0.24065591397849462
aF0.30921775507303595
aa(lp399
F0.24396586345381527
aF0.31279081387312546
aa(lp400
F0.23631510416666668
aF0.30871974424738186
aa(lp401
F0.23874909450115245
aF0.3127703198739842
aa(lp402
F0.236972324108036
aF0.3159766326632817
aa(lp403
F0.2415112433862434
aF0.3163563647632324
aa(lp404
F0.2421156207366985
aF0.3214221818281903
aa(lp405
F0.23907451847173983
aF0.31199512363855786
aa(lp406
F0.2396754924120116
aF0.3166845021853421
aa(lp407
F0.24111389830508473
aF0.3255137711921426
aa(lp408
F0.241258556421552
aF0.3270679293572682
aa(lp409
F0.23925016633399868
aF0.32708708833079564
aa(lp410
F0.2427031606386445
aF0.32329466267033913
aa(lp411
F0.23934103260869566
aF0.3314593098333219
aa(lp412
F0.24069735486087254
aF0.33451379928780667
aa(lp413
F0.23991178406846608
aF0.3283470974197495
aa(lp414
F0.2370731548007838
aF0.3286960077921425
aa(lp415
F0.24146992356264538
aF0.3355366828449639
aa(lp416
F0.241322718319107
aF0.3358901854364647
aa(lp417
F0.23562405021473407
aF0.33509434120061515
aa(lp418
F0.24225940902021775
aF0.3320648059668717
aa(lp419
F0.24479880915073646
aF0.33493955700241856
aa(lp420
F0.24309467654986522
aF0.3471386191352715
aa(lp421
F0.2445808482438701
aF0.3467934132199992
aa(lp422
F0.2439427443237907
aF0.346860850558646
aa(lp423
F0.2467312661498708
aF0.3474772801644917
aa(lp424
F0.24399652777777778
aF0.34496623071725685
aa(lp425
F0.23796898263027294
aF0.3411229311283026
aa(lp426
F0.2450670731707317
aF0.3503608545557601
aa(lp427
F0.24230311440024668
aF0.34531224461293736
aa(lp428
F0.247662874251497
aF0.3429318941656796
aa(lp429
F0.2473032679738562
aF0.35905808115785365
aa(lp430
F0.23934417344173442
aF0.3454173621856958
aa(lp431
F0.24243644859813085
aF0.3522099431354485
aa(lp432
F0.24376713141501039
aF0.34775773833113643
aa(lp433
F0.24413162544169612
aF0.3487580085127021
aa(lp434
F0.24411315165876776
aF0.3505242003696184
aa(lp435
F0.2412651149588419
aF0.3442810573440657
aa(lp436
F0.24842305475504323
aF0.35117698528578617
aa(lp437
F0.2471802612481858
aF0.35276450157403816
aa(lp438
F0.24713075862068967
aF0.34722141389973865
aa(lp439
F0.24629894032348018
aF0.3494369743369242
aa(lp440
F0.2401862823592207
aF0.34306955518424753
aa(lp441
F0.24789480764057034
aF0.3487492853215928
aa(lp442
F0.2418770053475936
aF0.3570009957099229
aa(lp443
F0.24246979681493686
aF0.3528986965462935
aa(lp444
F0.2390118489942133
aF0.35424072120321
aa(lp445
F0.24422517827756446
aF0.35525151743357425
aa(lp446
F0.24487503352105122
aF0.3559428171774508
aa(lp447
F0.2483641160949868
aF0.3533540529038262
aa(lp448
F0.24432702633597544
aF0.3497300795989612
aa(lp449
F0.24792562840114019
aF0.35537358815469783
aa(lp450
F0.24410820332159033
aF0.35124409771174797
aa(lp451
F0.24700149476831093
aF0.3507094500624097
aa(lp452
F0.24586262675036216
aF0.34807169181157915
aa(lp453
F0.24052280529671408
aF0.35031436926914017
aa(lp454
F0.2417113659022931
aF0.35397036759072764
aa(lp455
F0.251675018605805
aF0.3574094697966757
aa(lp456
F0.24887677018633542
aF0.3595296604717745
aa(lp457
F0.2506219716958503
aF0.3559436965613175
aa(lp458
F0.24568628348980995
aF0.349178219274168
aa(lp459
F0.24451494940202392
aF0.34964915868338414
aa(lp460
F0.2463616337769619
aF0.35419425058617987
aa(lp461
F0.24072453174965738
aF0.35248989854726237
aa(lp462
F0.24279641804579458
aF0.3520002393782056
aa(lp463
F0.24766233766233764
aF0.3611741196703007
aa(lp464
F0.24742581888246626
aF0.36548010393521063
aa(lp465
F0.24681727044884938
aF0.3589026999147963
aa(lp466
F0.2493179712265301
aF0.36992550646454997
aa(lp467
F0.2446150617859641
aF0.3633069997789586
aa(lp468
F0.24739745131041113
aF0.37028208051017236
aa(lp469
F0.24992827200745227
aF0.36827554207572166
aa(lp470
F0.2463803022915651
aF0.3745022585450049
aa(lp471
F0.25056734089787863
aF0.3805606293054158
aa(lp472
F0.24642556962025317
aF0.383117183512069
aa(lp473
F0.24314260607582225
aF0.38351702391718095
aa(lp474
F0.25267283950617286
aF0.39930995183599405
aa(lp475
F0.25019506493506494
aF0.39369057622955617
aa(lp476
F0.25153018718692327
aF0.39786170974685636
aa(lp477
F0.24811659693165972
aF0.4083561077438655
aa(lp478
F0.2485247991133278
aF0.40994814650686284
aa(lp479
F0.2523738777874312
aF0.4189519390198713
aa(lp480
F0.2499147791619479
aF0.41714646790588716
aa(lp481
F0.25192314593301435
aF0.42890350121655524
aa(lp482
F0.2530099348028563
aF0.43765990926124465
aa(lp483
F0.25102335121489433
aF0.4422470729928128
aa(lp484
F0.25566456117021275
aF0.45560125731555656
aaa(lp485
F0.0
aF0.1
aF0.2
aF0.3
aF0.4
aF0.5
aF0.6
aF0.7
aF0.8
aF0.9
aF1.0
aF1.1
aF1.2
aF1.3
aF1.4
aF1.5
aF1.6
aF1.7
aF1.8
aF1.9
aF2.0
aF2.1
aF2.2
aF2.3
aF2.4
aF2.5
aF2.6
aF2.7
aF2.8
aF2.9
aF3.0
aF3.1
aF3.2
aF3.3
aF3.4
aF3.5
aF3.6
aF3.7
aF3.8
aF3.9
aF4.0
aF4.1
aF4.2
aF4.3
aF4.4
aF4.5
aF4.6
aF4.7
aF4.8
aF4.9
aF5.0
aF5.1
aF5.2
aF5.3
aF5.4
aF5.5
aF5.6
aF5.7
aF5.8
aF5.9
aF6.0
aF6.1
aF6.2
aF6.3
aF6.4
aF6.5
aF6.6
aF6.7
aF6.8
aF6.9
aF7.0
aF7.1
aF7.2
aF7.3
aF7.4
aF7.5
aF7.6
aF7.7
aF7.8
aF7.9
aF8.0
aF8.1
aF8.2
aF8.3
aF8.4
aF8.5
aF8.6
aF8.7
aF8.8
aF8.9
aF9.0
aF9.1
aF9.2
aF9.3
aF9.4
aF9.5
aF9.6
aF9.7
aF9.8
aF9.9
aF10.0
aF10.1
aF10.2
aF10.3
aF10.4
aF10.5
aF10.6
aF10.7
aF10.8
aF10.9
aF11.0
aF11.1
aF11.2
aF11.3
aF11.4
aF11.5
aF11.6
aF11.7
aF11.8
aF11.9
aF12.0
aF12.1
aF12.2
aF12.3
aF12.4
aF12.5
aF12.6
aF12.7
aF12.8
aF12.9
aF13.0
aF13.1
aF13.2
aF13.3
aF13.4
aF13.5
aF13.6
aF13.7
aF13.8
aF13.9
aF14.0
aF14.1
aF14.2
aF14.3
aF14.4
aF14.5
aF14.6
aF14.7
aF14.8
aF14.9
aF15.0
aF15.1
aF15.2
aF15.3
aF15.4
aF15.5
aF15.6
aF15.7
aF15.8
aF15.9
aF16.0
aF16.1
aF16.2
aF16.3
aF16.4
aF16.5
aF16.6
aF16.7
aF16.8
aF16.9
aF17.0
aF17.1
aF17.2
aF17.3
aF17.4
aF17.5
aF17.6
aF17.7
aF17.8
aF17.9
aF18.0
aF18.1
aF18.2
aF18.3
aF18.4
aF18.5
aF18.6
aF18.7
aF18.8
aF18.9
aF19.0
aF19.1
aF19.2
aF19.3
aF19.4
aF19.5
aF19.6
aF19.7
aF19.8
aF19.9
aF20.0
aF20.1
aF20.2
aF20.3
aF20.4
aF20.5
aF20.6
aF20.7
aF20.8
aF20.9
aF21.0
aF21.1
aF21.2
aF21.3
aF21.4
aF21.5
aF21.6
aF21.7
aF21.8
aF21.9
aF22.0
aF22.1
aF22.2
aF22.3
aF22.4
aF22.5
aF22.6
aF22.7
aF22.8
aF22.9
aF23.0
aF23.1
aF23.2
aF23.3
aF23.4
aF23.5
aF23.6
aF23.7
aF23.8
aF23.9
aa(lp486
(lp487
F0.2528263841421736
aF0.14820360228487525
aa(lp488
F0.2513442219880576
aF0.1422514360877503
aa(lp489
F0.2503531480830109
aF0.1446932539331137
aa(lp490
F0.2570301470588235
aF0.1560568326705007
aa(lp491
F0.2521573208722741
aF0.1476989964414521
aa(lp492
F0.25623230707716915
aF0.15070304844904522
aa(lp493
F0.2519751623996943
aF0.14605173168371513
aa(lp494
F0.2576665261382799
aF0.15457928538838317
aa(lp495
F0.25175801282051286
aF0.14742594600343406
aa(lp496
F0.2530762114537445
aF0.1472994835866119
aa(lp497
F0.25138384715588363
aF0.15079089594608613
aa(lp498
F0.24642343173431733
aF0.14511362015609533
aa(lp499
F0.24865563218390804
aF0.1467852054385973
aa(lp500
F0.2510390404515522
aF0.1482458304298363
aa(lp501
F0.2515016408813877
aF0.14967887960604365
aa(lp502
F0.24876017029328287
aF0.14706650611280103
aa(lp503
F0.24403322099181513
aF0.14789298699071704
aa(lp504
F0.24781001548786782
aF0.1495750628428134
aa(lp505
F0.25112684210526315
aF0.151903787402421
aa(lp506
F0.25688479999999997
aF0.15717992856891946
aa(lp507
F0.2490725388601036
aF0.1508358324082479
aa(lp508
F0.2516787103946637
aF0.15240957912120282
aa(lp509
F0.25469363839285714
aF0.15622059666609991
aa(lp510
F0.25149220623501195
aF0.15362782117090995
aa(lp511
F0.2511992903607333
aF0.15804849798549953
aa(lp512
F0.2500923355461678
aF0.15244954196654725
aa(lp513
F0.2508621142481943
aF0.15572237047036436
aa(lp514
F0.25583934426229504
aF0.16224966512011887
aa(lp515
F0.2502189882189882
aF0.1582712711901155
aa(lp516
F0.25447672778561353
aF0.1615596787686297
aa(lp517
F0.25086335825968725
aF0.1630112836439399
aa(lp518
F0.24526338958180482
aF0.1623771159522735
aa(lp519
F0.24871524163568773
aF0.16558368967644407
aa(lp520
F0.2509162962962963
aF0.17090936639266555
aa(lp521
F0.24809546925566345
aF0.17269456488433368
aa(lp522
F0.2562748710390567
aF0.16831869545523176
aa(lp523
F0.2536799027552674
aF0.1735596140472039
aa(lp524
F0.2457097032878909
aF0.17388427387292152
aa(lp525
F0.2462104832104832
aF0.17701490838811165
aa(lp526
F0.25125020850708923
aF0.18310448164879256
aa(lp527
F0.24544419642857143
aF0.17747801729519103
aa(lp528
F0.25312212529738304
aF0.1844878995315811
aa(lp529
F0.24667569786535307
aF0.18276584716410008
aa(lp530
F0.24840110323089046
aF0.1875765350389132
aa(lp531
F0.24606834249803614
aF0.1833384355798073
aa(lp532
F0.2480181818181818
aF0.18943648651282707
aa(lp533
F0.23955256916996046
aF0.18384407252261656
aa(lp534
F0.24093106244931062
aF0.19248081187111055
aa(lp535
F0.24936470588235296
aF0.19560203525655653
aa(lp536
F0.24650712489522214
aF0.2011373411992329
aa(lp537
F0.23672741679873216
aF0.19215690504100952
aa(lp538
F0.2407388973966309
aF0.19526025851360193
aa(lp539
F0.2427746371275783
aF0.1969918355430143
aa(lp540
F0.2372121433796635
aF0.19505255228794346
aa(lp541
F0.2468958858102435
aF0.21007807890201222
aa(lp542
F0.24472972972972976
aF0.20437219604787862
aa(lp543
F0.23927126099706744
aF0.19961735889739218
aa(lp544
F0.24682690854119427
aF0.20712438500544783
aa(lp545
F0.241858687815429
aF0.20370643560474627
aa(lp546
F0.24203276247207745
aF0.20709935655664954
aa(lp547
F0.23507824933687002
aF0.19720164863241693
aa(lp548
F0.2399517195767196
aF0.2033823774234444
aa(lp549
F0.23803322475570035
aF0.20727100794304823
aa(lp550
F0.2307452380952381
aF0.20382754532257016
aa(lp551
F0.2347872763419483
aF0.20854353258705907
aa(lp552
F0.24091880597014925
aF0.20578085535025112
aa(lp553
F0.2362233656174334
aF0.20872440971635262
aa(lp554
F0.24277565217391306
aF0.20949455825983213
aa(lp555
F0.23784084585420143
aF0.20823787483973624
aa(lp556
F0.23835030777839955
aF0.20892570718780726
aa(lp557
F0.23862389610389612
aF0.20663864089518183
aa(lp558
F0.23520385818561
aF0.20846842855063977
aa(lp559
F0.24079645569620253
aF0.20654489685051483
aa(lp560
F0.23607968901846452
aF0.2081562613402459
aa(lp561
F0.2403035622096025
aF0.21670722278155047
aa(lp562
F0.23663301435406697
aF0.2099386784137611
aa(lp563
F0.23678208119458702
aF0.20930554467725263
aa(lp564
F0.2380558510638298
aF0.20959590829223076
aa(lp565
F0.23473298429319372
aF0.20792870402260494
aa(lp566
F0.2372069868995633
aF0.2087284203647924
aa(lp567
F0.23568498452012385
aF0.2047141001163565
aa(lp568
F0.23698620961386918
aF0.2087534095863549
aa(lp569
F0.2318100445524504
aF0.21080583397939157
aa(lp570
F0.23007813765182186
aF0.21043214799611898
aa(lp571
F0.23753333333333332
aF0.21563617161965376
aa(lp572
F0.23623538461538462
aF0.2116689811421754
aa(lp573
F0.2366027184466019
aF0.21487499535537125
aa(lp574
F0.23969514047076687
aF0.2184740715471667
aa(lp575
F0.238688618468146
aF0.21557258628207684
aa(lp576
F0.23930269523151348
aF0.21245606759140617
aa(lp577
F0.23701502286087525
aF0.2111898598712307
aa(lp578
F0.23417801590044934
aF0.21649582528485747
aa(lp579
F0.23495211544768776
aF0.21249955767196155
aa(lp580
F0.23933160779537152
aF0.21350223214526712
aa(lp581
F0.23108248081841434
aF0.2101268281031598
aa(lp582
F0.23205474220241884
aF0.21254591472375212
aa(lp583
F0.22694889162561577
aF0.21197694809038878
aa(lp584
F0.232477969348659
aF0.21779596249129687
aa(lp585
F0.23246469318532226
aF0.21602712825976492
aa(lp586
F0.23440214985773
aF0.22003200594150024
aa(lp587
F0.23834198516828292
aF0.21706636899281986
aa(lp588
F0.2326993233303913
aF0.21540778956643758
aa(lp589
F0.2327497784342688
aF0.21717159050601412
aa(lp590
F0.23568750000000002
aF0.22022436427944694
aa(lp591
F0.23416919044845663
aF0.2206935989951798
aa(lp592
F0.23526487163431434
aF0.2288431451166836
aa(lp593
F0.23489003645200487
aF0.22745405684944384
aa(lp594
F0.2398285472972973
aF0.2259805123053583
aa(lp595
F0.23778341748604837
aF0.22196233982166846
aa(lp596
F0.24189165370658372
aF0.2206043310116475
aa(lp597
F0.23493393619693545
aF0.21892194269022291
aa(lp598
F0.23340904419321684
aF0.22083987763828533
aa(lp599
F0.23752126528442316
aF0.22698219648600315
aa(lp600
F0.23653725
aF0.22383601643390805
aa(lp601
F0.23773644659151907
aF0.2310894938008106
aa(lp602
F0.23660834207764952
aF0.22826969889340168
aa(lp603
F0.23797877297437225
aF0.22928348994670286
aa(lp604
F0.2414415789473684
aF0.23519237953435243
aa(lp605
F0.240667488899852
aF0.22910155019071146
aa(lp606
F0.24136125397991673
aF0.22934156447764822
aa(lp607
F0.23796311858076563
aF0.2278649618805953
aa(lp608
F0.2360236470014627
aF0.23018527291069193
aa(lp609
F0.22952542787286065
aF0.23030124978621794
aa(lp610
F0.2347897979300148
aF0.23492828776841024
aa(lp611
F0.23584453461831095
aF0.23663846151078236
aa(lp612
F0.23865746711374775
aF0.2411190324319297
aa(lp613
F0.23562789500772002
aF0.23952599584653797
aa(lp614
F0.23866333915647617
aF0.24243400512483643
aa(lp615
F0.24186517130884888
aF0.24077806634106705
aa(lp616
F0.2458450248756219
aF0.24620756351511044
aa(lp617
F0.24341410579345088
aF0.24920237344421134
aa(lp618
F0.2352367708589712
aF0.24421609042981515
aa(lp619
F0.2367110655737705
aF0.24828695600897713
aa(lp620
F0.23983366683341673
aF0.24828594912219598
aa(lp621
F0.2365455254942768
aF0.25292386637876
aa(lp622
F0.23624252136752136
aF0.2582366909693704
aa(lp623
F0.23831400839454353
aF0.2562806160586428
aa(lp624
F0.23909040735873852
aF0.25988808807404684
aa(lp625
F0.2379215534979424
aF0.2586912903601727
aa(lp626
F0.23544284550638067
aF0.2618471627550153
aa(lp627
F0.23811748565727114
aF0.2570533486806348
aa(lp628
F0.23976795720835456
aF0.26135025360542913
aa(lp629
F0.24179953137203852
aF0.2643446139153025
aa(lp630
F0.23827231121281464
aF0.26403265608215076
aa(lp631
F0.23854251463618625
aF0.2735964987615084
aa(lp632
F0.2401264126149803
aF0.270693305155925
aa(lp633
F0.2416510474090408
aF0.27533737894296456
aa(lp634
F0.23628656330749354
aF0.2709981927444161
aa(lp635
F0.23911201011378003
aF0.2699713221152826
aa(lp636
F0.23781958900453698
aF0.2752855761500105
aa(lp637
F0.23590451478982877
aF0.27395129954815356
aa(lp638
F0.24301273547360042
aF0.2823749076652414
aa(lp639
F0.23720216130732738
aF0.27845513423679374
aa(lp640
F0.23719284802043422
aF0.2769487736925495
aa(lp641
F0.23766666666666666
aF0.28402859681825876
aa(lp642
F0.24098041237113402
aF0.28090261583917314
aa(lp643
F0.238001295672454
aF0.2822763550868916
aa(lp644
F0.2440291485553567
aF0.2867321306571125
aa(lp645
F0.23911128126595202
aF0.28399877361747317
aa(lp646
F0.24682647584973166
aF0.28937078324987425
aa(lp647
F0.24195287560172285
aF0.2870653898899986
aa(lp648
F0.24186831275720164
aF0.2912123512861064
aa(lp649
F0.24438621047174702
aF0.29346376385594714
aa(lp650
F0.24292801605216954
aF0.2923158626513508
aa(lp651
F0.2447675962815405
aF0.3000316205646798
aa(lp652
F0.2403749047498095
aF0.2934984230788016
aa(lp653
F0.23914073107049608
aF0.2983418453027422
aa(lp654
F0.2435157894736842
aF0.29991032077640184
aa(lp655
F0.23968520461699894
aF0.30324870749971344
aa(lp656
F0.24283044619422572
aF0.30684124154144615
aa(lp657
F0.24047796863330845
aF0.2993639398809613
aa(lp658
F0.23992355694227768
aF0.3060364484976183
aa(lp659
F0.2465303336703741
aF0.3052672491287503
aa(lp660
F0.24198165362035226
aF0.3005014753427126
aa(lp661
F0.24874968742185546
aF0.30803544686860485
aa(lp662
F0.24641745635910225
aF0.3079938114180254
aa(lp663
F0.24659989727786338
aF0.3115955387498436
aa(lp664
F0.2462379510471865
aF0.31371212275700366
aa(lp665
F0.2414819842053307
aF0.3107083265743425
aa(lp666
F0.24509215442092153
aF0.311859468075473
aa(lp667
F0.24554342198164275
aF0.3088482508488782
aa(lp668
F0.2422095238095238
aF0.3123411636311003
aa(lp669
F0.24692642642642643
aF0.3182993373815979
aa(lp670
F0.24183730814639906
aF0.3127310720203826
aa(lp671
F0.24749232673267327
aF0.318716279454527
aa(lp672
F0.24574981640146878
aF0.319106406556308
aa(lp673
F0.24749754781755762
aF0.32142657526349827
aa(lp674
F0.24940421961160394
aF0.32122917720709154
aa(lp675
F0.2447083916083916
aF0.31779371160095105
aa(lp676
F0.24339460491764145
aF0.32107144628478834
aa(lp677
F0.24717825189263593
aF0.3202276634280224
aa(lp678
F0.2508327214318494
aF0.32047784606316865
aa(lp679
F0.24500433988122428
aF0.31975797582951626
aa(lp680
F0.24800567279328342
aF0.32161297302237585
aa(lp681
F0.24707928505957835
aF0.3241188221971156
aa(lp682
F0.2482126215788283
aF0.3235523890299599
aa(lp683
F0.2508193013882669
aF0.3238641272814929
aa(lp684
F0.24973337795626954
aF0.32515901535735914
aa(lp685
F0.24845882088208823
aF0.3274621610296285
aa(lp686
F0.2517635180614763
aF0.32850572368077785
aa(lp687
F0.24927572731220146
aF0.3252753020321712
aa(lp688
F0.24873810563072896
aF0.32776802088271506
aa(lp689
F0.24561452396031247
aF0.32301414145967194
aa(lp690
F0.25004202542025417
aF0.3228256932323496
aa(lp691
F0.2519464398235665
aF0.32650403993992383
aa(lp692
F0.2602510552763819
aF0.3269267926473687
aa(lp693
F0.2500579023284566
aF0.32663334910952385
aa(lp694
F0.25014616977225673
aF0.3281798081831015
aa(lp695
F0.2508505485406748
aF0.32927701091385914
aa(lp696
F0.2532052163364335
aF0.3288293310512913
aa(lp697
F0.25229730286184887
aF0.3336237105017437
aa(lp698
F0.25043214140593256
aF0.33041702906165415
aa(lp699
F0.25003516437786105
aF0.3352367020806315
aa(lp700
F0.24982927337080993
aF0.33727539397272877
aa(lp701
F0.2532239540607055
aF0.33648841224904036
aa(lp702
F0.25290146060481383
aF0.33796731883533776
aa(lp703
F0.25241514360313316
aF0.33601400385563945
aa(lp704
F0.25196288826139573
aF0.3378967637484449
aa(lp705
F0.2499680979133226
aF0.33792761122015247
aa(lp706
F0.25359120489055414
aF0.33843765695693
aa(lp707
F0.25456849728424863
aF0.3438833137653708
aa(lp708
F0.25120810864789295
aF0.3406433512617664
aa(lp709
F0.2509644372600525
aF0.3440929783015669
aa(lp710
F0.2568947579031613
aF0.34626109249385273
aa(lp711
F0.2601915979583824
aF0.3467548287346744
aa(lp712
F0.2709151870041556
aF0.3467801675225892
aa(lp713
F0.2587224371373308
aF0.34460567709017864
aa(lp714
F0.2547694512694513
aF0.3530523832766452
aa(lp715
F0.2555560859188544
aF0.35042607819743904
aa(lp716
F0.2533766949152543
aF0.360768984047838
aa(lp717
F0.2559995786812724
aF0.3627357550356465
aa(lp718
F0.25293450777202076
aF0.35926769172421297
aa(lp719
F0.2564757575757576
aF0.3689806031370966
aa(lp720
F0.2555855855855856
aF0.3726360255847622
aa(lp721
F0.26166427640156453
aF0.37622500005240156
aa(lp722
F0.27377963236847663
aF0.37641280024320584
aa(lp723
F0.2574782899131597
aF0.3788202982996629
aa(lp724
F0.26271329672952975
aF0.3936441586706616
aa(lp725
F0.25483659184166063
aF0.39413432218454636
aa(lp726
F0.2567498745609634
aF0.4031932587741737
aaa(lp727
F0.0
aF0.1
aF0.2
aF0.3
aF0.4
aF0.5
aF0.6
aF0.7
aF0.8
aF0.9
aF1.0
aF1.1
aF1.2
aF1.3
aF1.4
aF1.5
aF1.6
aF1.7
aF1.8
aF1.9
aF2.0
aF2.1
aF2.2
aF2.3
aF2.4
aF2.5
aF2.6
aF2.7
aF2.8
aF2.9
aF3.0
aF3.1
aF3.2
aF3.3
aF3.4
aF3.5
aF3.6
aF3.7
aF3.8
aF3.9
aF4.0
aF4.1
aF4.2
aF4.3
aF4.4
aF4.5
aF4.6
aF4.7
aF4.8
aF4.9
aF5.0
aF5.1
aF5.2
aF5.3
aF5.4
aF5.5
aF5.6
aF5.7
aF5.8
aF5.9
aF6.0
aF6.1
aF6.2
aF6.3
aF6.4
aF6.5
aF6.6
aF6.7
aF6.8
aF6.9
aF7.0
aF7.1
aF7.2
aF7.3
aF7.4
aF7.5
aF7.6
aF7.7
aF7.8
aF7.9
aF8.0
aF8.1
aF8.2
aF8.3
aF8.4
aF8.5
aF8.6
aF8.7
aF8.8
aF8.9
aF9.0
aF9.1
aF9.2
aF9.3
aF9.4
aF9.5
aF9.6
aF9.7
aF9.8
aF9.9
aF10.0
aF10.1
aF10.2
aF10.3
aF10.4
aF10.5
aF10.6
aF10.7
aF10.8
aF10.9
aF11.0
aF11.1
aF11.2
aF11.3
aF11.4
aF11.5
aF11.6
aF11.7
aF11.8
aF11.9
aF12.0
aF12.1
aF12.2
aF12.3
aF12.4
aF12.5
aF12.6
aF12.7
aF12.8
aF12.9
aF13.0
aF13.1
aF13.2
aF13.3
aF13.4
aF13.5
aF13.6
aF13.7
aF13.8
aF13.9
aF14.0
aF14.1
aF14.2
aF14.3
aF14.4
aF14.5
aF14.6
aF14.7
aF14.8
aF14.9
aF15.0
aF15.1
aF15.2
aF15.3
aF15.4
aF15.5
aF15.6
aF15.7
aF15.8
aF15.9
aF16.0
aF16.1
aF16.2
aF16.3
aF16.4
aF16.5
aF16.6
aF16.7
aF16.8
aF16.9
aF17.0
aF17.1
aF17.2
aF17.3
aF17.4
aF17.5
aF17.6
aF17.7
aF17.8
aF17.9
aF18.0
aF18.1
aF18.2
aF18.3
aF18.4
aF18.5
aF18.6
aF18.7
aF18.8
aF18.9
aF19.0
aF19.1
aF19.2
aF19.3
aF19.4
aF19.5
aF19.6
aF19.7
aF19.8
aF19.9
aF20.0
aF20.1
aF20.2
aF20.3
aF20.4
aF20.5
aF20.6
aF20.7
aF20.8
aF20.9
aF21.0
aF21.1
aF21.2
aF21.3
aF21.4
aF21.5
aF21.6
aF21.7
aF21.8
aF21.9
aF22.0
aF22.1
aF22.2
aF22.3
aF22.4
aF22.5
aF22.6
aF22.7
aF22.8
aF22.9
aF23.0
aF23.1
aF23.2
aF23.3
aF23.4
aF23.5
aF23.6
aF23.7
aF23.8
aF23.9
aa(lp728
(lp729
F0.2519847080630213
aF0.14863755922608224
aa(lp730
F0.2496202275600506
aF0.145522574961475
aa(lp731
F0.24899254526091588
aF0.14339456594404676
aa(lp732
F0.25114635444385314
aF0.14734795965699723
aa(lp733
F0.24493951274152898
aF0.14097527142230173
aa(lp734
F0.24703141210374638
aF0.14214128998181375
aa(lp735
F0.2513355922215675
aF0.1440578943044199
aa(lp736
F0.24698541731306237
aF0.145265533442292
aa(lp737
F0.250667325428195
aF0.1495038934864421
aa(lp738
F0.2537497633322815
aF0.15226708758076735
aa(lp739
F0.24797201017811707
aF0.14432069754771978
aa(lp740
F0.2516904593639576
aF0.14758600591481766
aa(lp741
F0.25068486625137415
aF0.1486417007429992
aa(lp742
F0.25059992500937384
aF0.14880948175589984
aa(lp743
F0.24319188993482985
aF0.14333749908804436
aa(lp744
F0.24981470588235294
aF0.1492827434144364
aa(lp745
F0.24634546833522944
aF0.1438618302599618
aa(lp746
F0.252984602917342
aF0.14812872694592272
aa(lp747
F0.2539253288078065
aF0.15304296984438848
aa(lp748
F0.24980070702607157
aF0.14862961566262556
aa(lp749
F0.2487860869565217
aF0.14548436709062948
aa(lp750
F0.24836443276390713
aF0.14638050076549136
aa(lp751
F0.24949903100775195
aF0.14786452446342552
aa(lp752
F0.24899799899949976
aF0.15339729699940846
aa(lp753
F0.25280646929824563
aF0.1530048000345257
aa(lp754
F0.2543753910323253
aF0.15524283520118543
aa(lp755
F0.2514001154734411
aF0.15949375739560123
aa(lp756
F0.24757160120845922
aF0.15809599670732713
aa(lp757
F0.24846144791053562
aF0.1550500702304507
aa(lp758
F0.2547126843657817
aF0.16107671413904384
aa(lp759
F0.24501722090261283
aF0.15492921063932685
aa(lp760
F0.24550249687890138
aF0.15816911641622827
aa(lp761
F0.2448817891373802
aF0.15991466540511756
aa(lp762
F0.2451390041493776
aF0.16519297106322706
aa(lp763
F0.24515131136516477
aF0.16916648436176973
aa(lp764
F0.25424798387096775
aF0.16219594179034186
aa(lp765
F0.2516810109289618
aF0.16919987014618904
aa(lp766
F0.25096594427244584
aF0.1774814431589966
aa(lp767
F0.24112481751824819
aF0.17269055841961534
aa(lp768
F0.24604117647058824
aF0.17387100276565834
aa(lp769
F0.24212447257383965
aF0.1712480596588287
aa(lp770
F0.24209970674486803
aF0.17117482030026954
aa(lp771
F0.2515777426992897
aF0.18038914204849524
aa(lp772
F0.24145618153364634
aF0.18155245222820615
aa(lp773
F0.24627076677316295
aF0.18323750102701417
aa(lp774
F0.24494259818731115
aF0.18508240823030214
aa(lp775
F0.2468061776061776
aF0.1856846355723034
aa(lp776
F0.2457373271889401
aF0.19201002841375672
aa(lp777
F0.24204221028396006
aF0.18797921388512134
aa(lp778
F0.24132206119162639
aF0.19152864258674934
aa(lp779
F0.2434088440651668
aF0.19868786098261265
aa(lp780
F0.2437151379567487
aF0.19379438862288048
aa(lp781
F0.23898211624441132
aF0.194850962320866
aa(lp782
F0.2391957478005865
aF0.19242385033322473
aa(lp783
F0.24617760617760617
aF0.1991817130924225
aa(lp784
F0.2435301204819277
aF0.19251836325764854
aa(lp785
F0.24419037656903764
aF0.19752137698614167
aa(lp786
F0.23759215955983495
aF0.19550348847509563
aa(lp787
F0.23866009517335146
aF0.19667615228061916
aa(lp788
F0.23740622929092112
aF0.20388424119417384
aa(lp789
F0.2358393846153846
aF0.1980482803618877
aa(lp790
F0.23424876237623762
aF0.19696547134584808
aa(lp791
F0.23608277130594726
aF0.19869103836743587
aa(lp792
F0.22514969696969697
aF0.19829704339590237
aa(lp793
F0.23978353658536586
aF0.20959154058254154
aa(lp794
F0.24324135944700462
aF0.20785008434490812
aa(lp795
F0.23046094182825486
aF0.19854250593002745
aa(lp796
F0.23538052631578948
aF0.19936123360285277
aa(lp797
F0.23949667178699438
aF0.19957404208145105
aa(lp798
F0.23657384615384616
aF0.20326150404909077
aa(lp799
F0.23605852059925095
aF0.19957753470337972
aa(lp800
F0.23262906309751435
aF0.20122835858041907
aa(lp801
F0.23214983863531582
aF0.19884883453415572
aa(lp802
F0.2356100403406544
aF0.20316623639805614
aa(lp803
F0.23409898710865562
aF0.20090842713271015
aa(lp804
F0.23486011904761903
aF0.2013637711829774
aa(lp805
F0.23035284210526313
aF0.19866325637833077
aa(lp806
F0.23081388660640922
aF0.20121877382755032
aa(lp807
F0.2320348652931854
aF0.2038336005543836
aa(lp808
F0.2281623454327882
aF0.2028193666811955
aa(lp809
F0.2318466033601169
aF0.20123406771357982
aa(lp810
F0.22873101869515453
aF0.20095786973319138
aa(lp811
F0.23454739602847507
aF0.20785160529928112
aa(lp812
F0.23384945054945055
aF0.2066065126108019
aa(lp813
F0.23251025373653111
aF0.20142545302172002
aa(lp814
F0.23505306401917153
aF0.20281215816196535
aa(lp815
F0.23283814616755794
aF0.20845586645389533
aa(lp816
F0.23476074700493305
aF0.20903943880210105
aa(lp817
F0.23017703826955074
aF0.20450062411851067
aa(lp818
F0.2329025041736227
aF0.2076285056773576
aa(lp819
F0.23586151882578177
aF0.2072012918079848
aa(lp820
F0.23109388783868934
aF0.2059240173479372
aa(lp821
F0.23161495754408884
aF0.20971871847885465
aa(lp822
F0.23583631871525634
aF0.21326563157343653
aa(lp823
F0.23217592592592592
aF0.2115405085604934
aa(lp824
F0.23229336063176367
aF0.20678631222384666
aa(lp825
F0.23289475227206097
aF0.2112228918323884
aa(lp826
F0.23428852269442035
aF0.2121751543905298
aa(lp827
F0.23216707242848447
aF0.21478691240484585
aa(lp828
F0.2326594917787743
aF0.21661094980839438
aa(lp829
F0.2289513325608343
aF0.21217614988787778
aa(lp830
F0.2318368451025057
aF0.2151840154357952
aa(lp831
F0.23341237113402064
aF0.2148062740530373
aa(lp832
F0.23241968616262482
aF0.2163153058421159
aa(lp833
F0.23533203015917342
aF0.21690433504927423
aa(lp834
F0.23066417112299464
aF0.21522068896427923
aa(lp835
F0.23200651289009497
aF0.21733837071322873
aa(lp836
F0.23773688687269637
aF0.22426850009215335
aa(lp837
F0.23627220552063405
aF0.2225516304925897
aa(lp838
F0.23530019225487503
aF0.22362863206582773
aa(lp839
F0.2355633764832794
aF0.22283995383388985
aa(lp840
F0.23244824861732946
aF0.22295777849346526
aa(lp841
F0.23726583288983502
aF0.2263398067661715
aa(lp842
F0.2333565584586962
aF0.2264392308351747
aa(lp843
F0.23816512734396866
aF0.23223133074244362
aa(lp844
F0.2393411214953271
aF0.2290965953571702
aa(lp845
F0.23989742226946587
aF0.2335092355904998
aa(lp846
F0.23544349906939646
aF0.23237569328725408
aa(lp847
F0.23578477690288716
aF0.23424278698537523
aa(lp848
F0.23739080157687256
aF0.2328689162267029
aa(lp849
F0.23528815212091664
aF0.22899026652124566
aa(lp850
F0.23776740065806123
aF0.233650529497543
aa(lp851
F0.23555315492266143
aF0.23264593448100504
aa(lp852
F0.24032163449486088
aF0.23601000562263832
aa(lp853
F0.23526422347514095
aF0.23630133861561098
aa(lp854
F0.2373065953654189
aF0.23978875215383993
aa(lp855
F0.23980670303975057
aF0.24210193242249906
aa(lp856
F0.238421997471555
aF0.2427555907809169
aa(lp857
F0.23857769516728625
aF0.24342228049561718
aa(lp858
F0.23681315054582383
aF0.2458171789035171
aa(lp859
F0.23798723199229102
aF0.24114396356168633
aa(lp860
F0.23817983581323754
aF0.24769195967186855
aa(lp861
F0.24016427813163482
aF0.252242775231417
aa(lp862
F0.23761405269761607
aF0.2471875976601785
aa(lp863
F0.24255297494780792
aF0.2578127459361402
aa(lp864
F0.24088229220443985
aF0.25690408690729977
aa(lp865
F0.23970098430433626
aF0.260408586060601
aa(lp866
F0.24261613566289827
aF0.2581634563896092
aa(lp867
F0.23796688741721855
aF0.25786897166310957
aa(lp868
F0.2442536344755971
aF0.2603107920143481
aa(lp869
F0.23590413723511605
aF0.2567937595941094
aa(lp870
F0.24198665995469418
aF0.26158729992416624
aa(lp871
F0.24031682146542827
aF0.2649990388020257
aa(lp872
F0.24113172588832488
aF0.2627011245529743
aa(lp873
F0.24233442622950818
aF0.2731664090537784
aa(lp874
F0.2399294176959919
aF0.2644946933744347
aa(lp875
F0.24300793021411576
aF0.2765580017550898
aa(lp876
F0.24626682194616978
aF0.27337307414361206
aa(lp877
F0.24239827179890025
aF0.2743671155562132
aa(lp878
F0.24504016802310316
aF0.2775575915209241
aa(lp879
F0.24270243168713962
aF0.2731417309055675
aa(lp880
F0.2374530803223291
aF0.27482954263353804
aa(lp881
F0.24162145274668054
aF0.2802922710056293
aa(lp882
F0.24714081579631073
aF0.28457423410908617
aa(lp883
F0.24186731991525426
aF0.2844383709956219
aa(lp884
F0.24104980842911877
aF0.2811634322743216
aa(lp885
F0.24178666326009196
aF0.2831585326793797
aa(lp886
F0.24223150612027675
aF0.2891056121695598
aa(lp887
F0.24258098028769312
aF0.2885687745034736
aa(lp888
F0.24412526881720428
aF0.293845626794618
aa(lp889
F0.24122438780609695
aF0.28540955742768975
aa(lp890
F0.24320914542728636
aF0.28581623774005627
aa(lp891
F0.2425572354211663
aF0.2971826880192646
aa(lp892
F0.2432934978154716
aF0.295992187429681
aa(lp893
F0.24073151041666666
aF0.2957483821511049
aa(lp894
F0.2424963503649635
aF0.29373251408052625
aa(lp895
F0.24227146401985114
aF0.2950444565272604
aa(lp896
F0.24191625615763548
aF0.3000944984080459
aa(lp897
F0.24623980125523012
aF0.30305622561399864
aa(lp898
F0.24584994807892005
aF0.30354926218891104
aa(lp899
F0.24335164556962027
aF0.30272109929194163
aa(lp900
F0.24334636730575177
aF0.30326241560248623
aa(lp901
F0.2452381329113924
aF0.3120268116628971
aa(lp902
F0.24659586170770037
aF0.31058852727689773
aa(lp903
F0.24417402398571064
aF0.3090459381096654
aa(lp904
F0.2443167733674776
aF0.31225619717143044
aa(lp905
F0.24872471482889735
aF0.3124330407128594
aa(lp906
F0.24664860599684377
aF0.31742722435513093
aa(lp907
F0.24607968631419178
aF0.31434868799863036
aa(lp908
F0.24604387064427177
aF0.3146483721951131
aa(lp909
F0.24281289506953224
aF0.3150088065273259
aa(lp910
F0.2476522608043967
aF0.31802101236334623
aa(lp911
F0.24600757384498864
aF0.31983757232366417
aa(lp912
F0.24530703676649623
aF0.3153993231307403
aa(lp913
F0.24661186052430645
aF0.32376862019258484
aa(lp914
F0.24415153035624687
aF0.3227613234086421
aa(lp915
F0.24997332336075792
aF0.3233176854459011
aa(lp916
F0.24781149598393573
aF0.3248055017510231
aa(lp917
F0.2434897047878938
aF0.3236833391608377
aa(lp918
F0.248052817791256
aF0.33128374714528214
aa(lp919
F0.24859543670264966
aF0.32753213671768483
aa(lp920
F0.25003717026378897
aF0.3273084348482535
aa(lp921
F0.24541065830721
aF0.327333472960278
aa(lp922
F0.24615499398315283
aF0.3294850953616095
aa(lp923
F0.2473860544217687
aF0.330727315723421
aa(lp924
F0.24768321513002364
aF0.32895818606447613
aa(lp925
F0.24781739755571533
aF0.33212981066958097
aa(lp926
F0.24833159333830476
aF0.33941803150834543
aa(lp927
F0.2475426935524023
aF0.34127547441074174
aa(lp928
F0.24971384688090736
aF0.33475600474873146
aa(lp929
F0.25010841983852367
aF0.33342347394429594
aa(lp930
F0.25313064856005624
aF0.33855413436629506
aa(lp931
F0.2470092656937688
aF0.33579168747117416
aa(lp932
F0.25176687543493387
aF0.3390997733900473
aa(lp933
F0.2503147600636798
aF0.3370108028674064
aa(lp934
F0.2513962130177515
aF0.3452867957111502
aa(lp935
F0.25008721060912564
aF0.33855686315129446
aa(lp936
F0.2500789889415482
aF0.3400276739347928
aa(lp937
F0.2504673838406958
aF0.3435900942101371
aa(lp938
F0.24794174075807207
aF0.34710268903614366
aa(lp939
F0.24969186973354587
aF0.34533517246858375
aa(lp940
F0.24962819657549476
aF0.3433413194512113
aa(lp941
F0.25013710911874043
aF0.34354945387814245
aa(lp942
F0.24961227678571427
aF0.3462917688557178
aa(lp943
F0.2536556247220987
aF0.3495676193128084
aa(lp944
F0.25362335928809787
aF0.3501993460362763
aa(lp945
F0.2527316851893854
aF0.35396742341404813
aa(lp946
F0.25443951340391985
aF0.3549121693167208
aa(lp947
F0.25317817468961007
aF0.35124912121339424
aa(lp948
F0.2524688057040998
aF0.3546977894919419
aa(lp949
F0.25634397007042253
aF0.35618956318947803
aa(lp950
F0.2529099909990999
aF0.360372976193874
aa(lp951
F0.25642334300379377
aF0.35962398328916867
aa(lp952
F0.2534224868330662
aF0.36460418850042736
aa(lp953
F0.2568778885364748
aF0.36582879502557825
aa(lp954
F0.25046718924972006
aF0.365105407597089
aa(lp955
F0.25455869904210293
aF0.36661268788671136
aa(lp956
F0.2554545870510181
aF0.3717358255091112
aa(lp957
F0.25461645746164574
aF0.37491440832239453
aa(lp958
F0.2553166933821846
aF0.37362935248732054
aa(lp959
F0.2556827866890113
aF0.3820302159434055
aa(lp960
F0.2563176331360947
aF0.38133934923464125
aa(lp961
F0.251104662004662
aF0.37855332296458083
aa(lp962
F0.2564011991006745
aF0.3931536557378693
aa(lp963
F0.250302467627657
aF0.3902549106603219
aa(lp964
F0.2524485627836611
aF0.39853089453430357
aa(lp965
F0.25598378515328096
aF0.3996220036596881
aa(lp966
F0.25956801040312094
aF0.406995627824146
aa(lp967
F0.2553734042553191
aF0.4127158771465541
aa(lp968
F0.2567515461145469
aF0.4140871339456916
aaa(lp969
F0.0
aF0.1
aF0.2
aF0.3
aF0.4
aF0.5
aF0.6
aF0.7
aF0.8
aF0.9
aF1.0
aF1.1
aF1.2
aF1.3
aF1.4
aF1.5
aF1.6
aF1.7
aF1.8
aF1.9
aF2.0
aF2.1
aF2.2
aF2.3
aF2.4
aF2.5
aF2.6
aF2.7
aF2.8
aF2.9
aF3.0
aF3.1
aF3.2
aF3.3
aF3.4
aF3.5
aF3.6
aF3.7
aF3.8
aF3.9
aF4.0
aF4.1
aF4.2
aF4.3
aF4.4
aF4.5
aF4.6
aF4.7
aF4.8
aF4.9
aF5.0
aF5.1
aF5.2
aF5.3
aF5.4
aF5.5
aF5.6
aF5.7
aF5.8
aF5.9
aF6.0
aF6.1
aF6.2
aF6.3
aF6.4
aF6.5
aF6.6
aF6.7
aF6.8
aF6.9
aF7.0
aF7.1
aF7.2
aF7.3
aF7.4
aF7.5
aF7.6
aF7.7
aF7.8
aF7.9
aF8.0
aF8.1
aF8.2
aF8.3
aF8.4
aF8.5
aF8.6
aF8.7
aF8.8
aF8.9
aF9.0
aF9.1
aF9.2
aF9.3
aF9.4
aF9.5
aF9.6
aF9.7
aF9.8
aF9.9
aF10.0
aF10.1
aF10.2
aF10.3
aF10.4
aF10.5
aF10.6
aF10.7
aF10.8
aF10.9
aF11.0
aF11.1
aF11.2
aF11.3
aF11.4
aF11.5
aF11.6
aF11.7
aF11.8
aF11.9
aF12.0
aF12.1
aF12.2
aF12.3
aF12.4
aF12.5
aF12.6
aF12.7
aF12.8
aF12.9
aF13.0
aF13.1
aF13.2
aF13.3
aF13.4
aF13.5
aF13.6
aF13.7
aF13.8
aF13.9
aF14.0
aF14.1
aF14.2
aF14.3
aF14.4
aF14.5
aF14.6
aF14.7
aF14.8
aF14.9
aF15.0
aF15.1
aF15.2
aF15.3
aF15.4
aF15.5
aF15.6
aF15.7
aF15.8
aF15.9
aF16.0
aF16.1
aF16.2
aF16.3
aF16.4
aF16.5
aF16.6
aF16.7
aF16.8
aF16.9
aF17.0
aF17.1
aF17.2
aF17.3
aF17.4
aF17.5
aF17.6
aF17.7
aF17.8
aF17.9
aF18.0
aF18.1
aF18.2
aF18.3
aF18.4
aF18.5
aF18.6
aF18.7
aF18.8
aF18.9
aF19.0
aF19.1
aF19.2
aF19.3
aF19.4
aF19.5
aF19.6
aF19.7
aF19.8
aF19.9
aF20.0
aF20.1
aF20.2
aF20.3
aF20.4
aF20.5
aF20.6
aF20.7
aF20.8
aF20.9
aF21.0
aF21.1
aF21.2
aF21.3
aF21.4
aF21.5
aF21.6
aF21.7
aF21.8
aF21.9
aF22.0
aF22.1
aF22.2
aF22.3
aF22.4
aF22.5
aF22.6
aF22.7
aF22.8
aF22.9
aF23.0
aF23.1
aF23.2
aF23.3
aF23.4
aF23.5
aF23.6
aF23.7
aF23.8
aF23.9
aa(lp970
(lp971
F0.26465451055662187
aF0.15961322858737864
aa(lp972
F0.2514402432575357
aF0.14685026837249152
aa(lp973
F0.2522771436156092
aF0.15001798499195892
aa(lp974
F0.2528560667204735
aF0.15201288646766878
aa(lp975
F0.24748727925770728
aF0.1454962134097564
aa(lp976
F0.2503378023899738
aF0.153289877158824
aa(lp977
F0.25332158054711246
aF0.1528391247172132
aa(lp978
F0.25517508521846916
aF0.15217658486457475
aa(lp979
F0.2525977165883143
aF0.14928318487363895
aa(lp980
F0.25748953068592056
aF0.15252417671985652
aa(lp981
F0.25433044733044735
aF0.15336716970794048
aa(lp982
F0.2561150824823252
aF0.1522476130199362
aa(lp983
F0.2589674532139951
aF0.15361447575565204
aa(lp984
F0.24845374633737968
aF0.1499193112667313
aa(lp985
F0.26027700582698343
aF0.15800160186847476
aa(lp986
F0.25676926543488054
aF0.1574564245671398
aa(lp987
F0.25800726942298957
aF0.15324584509225875
aa(lp988
F0.2536812749003984
aF0.15838118860774256
aa(lp989
F0.2565012309207287
aF0.15192100901053696
aa(lp990
F0.2525242864296445
aF0.15226350312804354
aa(lp991
F0.25357557251908397
aF0.15493295972748664
aa(lp992
F0.2564318766066838
aF0.15564274544512732
aa(lp993
F0.25073326248671624
aF0.1555738739270854
aa(lp994
F0.2615796460176991
aF0.1595730165467705
aa(lp995
F0.2624050139275766
aF0.1621512028089644
aa(lp996
F0.25084325279905717
aF0.16430534216207934
aa(lp997
F0.2568117359413203
aF0.16555577792787152
aa(lp998
F0.2554078455790785
aF0.1596971430038117
aa(lp999
F0.2435989410986102
aF0.1589069138116908
aa(lp1000
F0.258593837535014
aF0.17139461024694763
aa(lp1001
F0.24875016097875083
aF0.16753129239636774
aa(lp1002
F0.24768187919463086
aF0.1667031826790898
aa(lp1003
F0.2523312412831241
aF0.17282092361802948
aa(lp1004
F0.2560894015861572
aF0.1642821300818076
aa(lp1005
F0.25601069137562366
aF0.17370780071219113
aa(lp1006
F0.2493976522377109
aF0.17238567147581257
aa(lp1007
F0.25630695443645085
aF0.18201841693520224
aa(lp1008
F0.25697638436482084
aF0.18426334825986665
aa(lp1009
F0.25768744734625104
aF0.18126214105516744
aa(lp1010
F0.2529780960404381
aF0.19102252021623373
aa(lp1011
F0.2538367346938776
aF0.18810469844497074
aa(lp1012
F0.253
aF0.1894090081219042
aa(lp1013
F0.2552213883677298
aF0.18660836384685747
aa(lp1014
F0.2450507042253521
aF0.18711134471592603
aa(lp1015
F0.25658940397350993
aF0.1994659531813061
aa(lp1016
F0.24176915887850467
aF0.18803095694371777
aa(lp1017
F0.24856016177957532
aF0.19859626223791974
aa(lp1018
F0.2509877800407332
aF0.20591455294004343
aa(lp1019
F0.24871428571428572
aF0.20069817728572187
aa(lp1020
F0.24737837837837837
aF0.20748267531581613
aa(lp1021
F0.2519972972972973
aF0.2099131921398652
aa(lp1022
F0.24308130841121495
aF0.20490470514605055
aa(lp1023
F0.24591181988742963
aF0.20360174167298217
aa(lp1024
F0.24496580406654345
aF0.20754179440386458
aa(lp1025
F0.2467637305699482
aF0.22177845878883035
aa(lp1026
F0.24933846153846154
aF0.2099422829056036
aa(lp1027
F0.25064026095060576
aF0.22165163002775704
aa(lp1028
F0.24227439024390246
aF0.2147597359226349
aa(lp1029
F0.24065963060686016
aF0.2170353489030185
aa(lp1030
F0.2348245770258237
aF0.21832382129816616
aa(lp1031
F0.2382063227953411
aF0.21594185549778389
aa(lp1032
F0.23584608915054667
aF0.21786996638157016
aa(lp1033
F0.24065900383141764
aF0.21688150417520938
aa(lp1034
F0.23717577197149645
aF0.21332761828872593
aa(lp1035
F0.24638536585365853
aF0.2264206381935801
aa(lp1036
F0.2328790896159317
aF0.21829450127033562
aa(lp1037
F0.23401740391588105
aF0.21790688811615364
aa(lp1038
F0.23638176426982951
aF0.21952718343434827
aa(lp1039
F0.24451164383561647
aF0.22242115729976783
aa(lp1040
F0.2376356749311295
aF0.2217681348435896
aa(lp1041
F0.23133376455368693
aF0.21715304995595092
aa(lp1042
F0.2318628088426528
aF0.2230368503162691
aa(lp1043
F0.2364632587859425
aF0.22454449080017208
aa(lp1044
F0.236384984984985
aF0.22032034454750024
aa(lp1045
F0.23716154309825196
aF0.22647286150943385
aa(lp1046
F0.23508328826392644
aF0.21539951953526104
aa(lp1047
F0.23895475113122172
aF0.22306402143128562
aa(lp1048
F0.23223735408560311
aF0.22018384427105128
aa(lp1049
F0.23042994350282486
aF0.2221739394324044
aa(lp1050
F0.23238369053842134
aF0.2198266485761881
aa(lp1051
F0.23263880742913
aF0.21711796628888877
aa(lp1052
F0.23600758653390233
aF0.2198324248349885
aa(lp1053
F0.2318804780876494
aF0.22180960844601413
aa(lp1054
F0.23878863745787193
aF0.2241194525331936
aa(lp1055
F0.23306985466479135
aF0.2218084723389508
aa(lp1056
F0.23690255949708128
aF0.2227540917240113
aa(lp1057
F0.23209751523675576
aF0.22684567544380616
aa(lp1058
F0.22970514541387024
aF0.22099639331856857
aa(lp1059
F0.24029428172942818
aF0.23238589670178103
aa(lp1060
F0.23946744186046512
aF0.23649618480265658
aa(lp1061
F0.2356662457912458
aF0.22681757319174967
aa(lp1062
F0.23324160206718345
aF0.22788564471342693
aa(lp1063
F0.22926165347405453
aF0.2269331301102937
aa(lp1064
F0.23242924731182796
aF0.23235853284203287
aa(lp1065
F0.23271900126957257
aF0.23298359284977577
aa(lp1066
F0.23919599488708992
aF0.24002587762090621
aa(lp1067
F0.23778619813717186
aF0.23492233347598587
aa(lp1068
F0.23923014256619143
aF0.23691316894761846
aa(lp1069
F0.23610715682440359
aF0.23277258461823916
aa(lp1070
F0.23614817915445793
aF0.23842441847863605
aa(lp1071
F0.23489897843359817
aF0.23381723876954508
aa(lp1072
F0.23942719568567025
aF0.2388255457978067
aa(lp1073
F0.23909540775930327
aF0.24297660891104902
aa(lp1074
F0.2350314253647587
aF0.23864785440743955
aa(lp1075
F0.2366548872180451
aF0.24001757894946676
aa(lp1076
F0.24355312954876274
aF0.24125952206478
aa(lp1077
F0.2414944362017804
aF0.24491479410148906
aa(lp1078
F0.24172387196297723
aF0.24994936083765099
aa(lp1079
F0.23809801720912832
aF0.24700691243410322
aa(lp1080
F0.2371392501912777
aF0.25150852738366797
aa(lp1081
F0.24035716801690737
aF0.24514084044309487
aa(lp1082
F0.2343043002915452
aF0.24626252623946257
aa(lp1083
F0.23892697624955692
aF0.25046325090861504
aa(lp1084
F0.24160248667850798
aF0.25235461039912066
aa(lp1085
F0.2391374682626043
aF0.25376474976223523
aa(lp1086
F0.2378490294751977
aF0.25448632654112646
aa(lp1087
F0.23787232574189096
aF0.2516120032778334
aa(lp1088
F0.23791462536023056
aF0.25667203230582747
aa(lp1089
F0.24346902042229143
aF0.25842436183252615
aa(lp1090
F0.2427731843575419
aF0.26215524580315747
aa(lp1091
F0.23619610570236438
aF0.2567829341453739
aa(lp1092
F0.2377545201668985
aF0.26099614036209196
aa(lp1093
F0.24300836236933795
aF0.26499866812722456
aa(lp1094
F0.2412053180747223
aF0.25922174818608745
aa(lp1095
F0.2435933311539719
aF0.2622899484131498
aa(lp1096
F0.23932480382122143
aF0.26543379575182696
aa(lp1097
F0.24228154004812652
aF0.2681901274014233
aa(lp1098
F0.24575761679079214
aF0.27013237806210505
aa(lp1099
F0.23957967422096316
aF0.2761422996079497
aa(lp1100
F0.24067222625090645
aF0.27797910386947783
aa(lp1101
F0.24299086437104708
aF0.27905324230879086
aa(lp1102
F0.24129446713702193
aF0.28497146274553786
aa(lp1103
F0.24666388599235317
aF0.27904737608647956
aa(lp1104
F0.24553082549634273
aF0.28246319301520106
aa(lp1105
F0.2450107229332411
aF0.2817720597515041
aa(lp1106
F0.24186968641114984
aF0.2858576177832692
aa(lp1107
F0.24325008611780916
aF0.2862478578538889
aa(lp1108
F0.24295979020979022
aF0.2870194217036073
aa(lp1109
F0.24224630541871922
aF0.2895278837861548
aa(lp1110
F0.24417071402682133
aF0.29566681473394035
aa(lp1111
F0.243138928067701
aF0.29258035948983874
aa(lp1112
F0.2449673366834171
aF0.29682820232844476
aa(lp1113
F0.24175754385964912
aF0.29514579359103993
aa(lp1114
F0.24474477560808494
aF0.2964755622860682
aa(lp1115
F0.24148646723646724
aF0.30067864665137706
aa(lp1116
F0.24847075112495673
aF0.3012780703686642
aa(lp1117
F0.2448821453775582
aF0.3030183065725444
aa(lp1118
F0.24478350877192984
aF0.3064272164312158
aa(lp1119
F0.24272743177046888
aF0.3065002640371864
aa(lp1120
F0.2411337252020573
aF0.3134564201794544
aa(lp1121
F0.24182336481287164
aF0.30763059138438104
aa(lp1122
F0.23940125045972785
aF0.31607980314432826
aa(lp1123
F0.24726393917451123
aF0.31793528517448216
aa(lp1124
F0.2430433287482806
aF0.3144932544044502
aa(lp1125
F0.24502305574673092
aF0.3144448636466452
aa(lp1126
F0.24489344549596917
aF0.3195464690231423
aa(lp1127
F0.24537963296149692
aF0.3255061907752026
aa(lp1128
F0.2372794376098418
aF0.3217510223921173
aa(lp1129
F0.24217863652934746
aF0.32789506517578215
aa(lp1130
F0.24615626154414483
aF0.3314248968764068
aa(lp1131
F0.24501283018867925
aF0.33697720274435844
aa(lp1132
F0.24536107899807322
aF0.3419291480379246
aa(lp1133
F0.24767788279773154
aF0.3414294479256229
aa(lp1134
F0.24433758193736344
aF0.33696039346182344
aa(lp1135
F0.24880370101596516
aF0.34025597111738437
aa(lp1136
F0.24446299739680177
aF0.343256308126365
aa(lp1137
F0.24642831083546152
aF0.344042975567908
aa(lp1138
F0.24806656912948064
aF0.34580444501358276
aa(lp1139
F0.24522415014164306
aF0.3420082773083391
aa(lp1140
F0.2462769732078204
aF0.3482402468259742
aa(lp1141
F0.24320907441016335
aF0.34787612966100867
aa(lp1142
F0.24426020786933927
aF0.35426063997798285
aa(lp1143
F0.24829312207418078
aF0.3531333016665304
aa(lp1144
F0.24248117154811716
aF0.34922678854464173
aa(lp1145
F0.249511839708561
aF0.35791690194405984
aa(lp1146
F0.24477432045779685
aF0.3549259241902862
aa(lp1147
F0.2498470423521176
aF0.35576872531110937
aa(lp1148
F0.2515091891891892
aF0.36296128620450474
aa(lp1149
F0.24445751633986929
aF0.36265844391287055
aa(lp1150
F0.24486467236467238
aF0.3607348092817461
aa(lp1151
F0.24331475069252076
aF0.3585835568792255
aa(lp1152
F0.24644303797468353
aF0.3671997972878652
aa(lp1153
F0.2460955547777389
aF0.3644967247653768
aa(lp1154
F0.25269147398843933
aF0.37193892506026577
aa(lp1155
F0.2531220290883292
aF0.37229089187035125
aa(lp1156
F0.24851571882726953
aF0.3713402643003319
aa(lp1157
F0.24852172312223858
aF0.3796707518661287
aa(lp1158
F0.25235914742451154
aF0.375555350875756
aa(lp1159
F0.2497858376511226
aF0.37432120884004416
aa(lp1160
F0.2493087154357718
aF0.376096170854527
aa(lp1161
F0.2468179559971611
aF0.38122273600213147
aa(lp1162
F0.24462172284644193
aF0.3754381059072111
aa(lp1163
F0.2511900420757363
aF0.38411954881096916
aa(lp1164
F0.24392183830929218
aF0.3772413086639977
aa(lp1165
F0.2506055363321799
aF0.3852003728069306
aa(lp1166
F0.24770248756218904
aF0.37929672642837003
aa(lp1167
F0.24976866173503698
aF0.38312190465199913
aa(lp1168
F0.24958227401129943
aF0.39265547819975843
aa(lp1169
F0.24957360742705573
aF0.38376676411615274
aa(lp1170
F0.2521472413793103
aF0.3925912035398986
aa(lp1171
F0.2536290269013617
aF0.38760089785879814
aa(lp1172
F0.24845555555555557
aF0.3960758872729119
aa(lp1173
F0.24886178299930892
aF0.3974743382130713
aa(lp1174
F0.24651918661856348
aF0.3902919145782615
aa(lp1175
F0.25385013623978203
aF0.3998183821332304
aa(lp1176
F0.25172207357859533
aF0.39773615819621233
aa(lp1177
F0.2536239316239316
aF0.3968994729653554
aa(lp1178
F0.2523020694259012
aF0.4000073328322734
aa(lp1179
F0.24725690789473687
aF0.39843523089680144
aa(lp1180
F0.2508625498007968
aF0.40276304791411444
aa(lp1181
F0.2509717990275527
aF0.4018474153005031
aa(lp1182
F0.258322868473232
aF0.40759950265482825
aa(lp1183
F0.256424584717608
aF0.4099406077566764
aa(lp1184
F0.2540577164366374
aF0.40136409364810416
aa(lp1185
F0.25371960784313724
aF0.40901295304420004
aa(lp1186
F0.2556376764030194
aF0.41309614317312837
aa(lp1187
F0.25911888564949787
aF0.4123587923310918
aa(lp1188
F0.25602662229617307
aF0.41952810971806637
aa(lp1189
F0.25577333333333335
aF0.4198640890097281
aa(lp1190
F0.25859882005899704
aF0.4201388899765629
aa(lp1191
F0.25635825747724317
aF0.4186399322934372
aa(lp1192
F0.25740110605074823
aF0.42195027970238097
aa(lp1193
F0.2558970540628035
aF0.4207276917015389
aa(lp1194
F0.2550909386164339
aF0.424647160241112
aa(lp1195
F0.2525492376111817
aF0.42140959734529304
aa(lp1196
F0.2578990978950886
aF0.43217309038856655
aa(lp1197
F0.25432651072124757
aF0.42968156269765945
aa(lp1198
F0.2539703375383566
aF0.44017801125129197
aa(lp1199
F0.25609250663129973
aF0.43690302713677426
aa(lp1200
F0.26136256323777407
aF0.4418511678562564
aa(lp1201
F0.2538691432396252
aF0.4406031155152481
aa(lp1202
F0.261200272479564
aF0.4471839733758566
aa(lp1203
F0.25995270500170126
aF0.4496160461782228
aa(lp1204
F0.25767700792830056
aF0.45238461830783677
aa(lp1205
F0.2621510161177295
aF0.4575688188064581
aa(lp1206
F0.25661299435028245
aF0.4602351731871172
aa(lp1207
F0.258414920984932
aF0.47115846534733813
aa(lp1208
F0.2611381392045455
aF0.4672679588702853
aa(lp1209
F0.2558618742943169
aF0.4801756997976411
aa(lp1210
F0.2614077741107444
aF0.47721387795206377
aaa(lp1211
F0.0
aF0.1
aF0.2
aF0.3
aF0.4
aF0.5
aF0.6
aF0.7
aF0.8
aF0.9
aF1.0
aF1.1
aF1.2
aF1.3
aF1.4
aF1.5
aF1.6
aF1.7
aF1.8
aF1.9
aF2.0
aF2.1
aF2.2
aF2.3
aF2.4
aF2.5
aF2.6
aF2.7
aF2.8
aF2.9
aF3.0
aF3.1
aF3.2
aF3.3
aF3.4
aF3.5
aF3.6
aF3.7
aF3.8
aF3.9
aF4.0
aF4.1
aF4.2
aF4.3
aF4.4
aF4.5
aF4.6
aF4.7
aF4.8
aF4.9
aF5.0
aF5.1
aF5.2
aF5.3
aF5.4
aF5.5
aF5.6
aF5.7
aF5.8
aF5.9
aF6.0
aF6.1
aF6.2
aF6.3
aF6.4
aF6.5
aF6.6
aF6.7
aF6.8
aF6.9
aF7.0
aF7.1
aF7.2
aF7.3
aF7.4
aF7.5
aF7.6
aF7.7
aF7.8
aF7.9
aF8.0
aF8.1
aF8.2
aF8.3
aF8.4
aF8.5
aF8.6
aF8.7
aF8.8
aF8.9
aF9.0
aF9.1
aF9.2
aF9.3
aF9.4
aF9.5
aF9.6
aF9.7
aF9.8
aF9.9
aF10.0
aF10.1
aF10.2
aF10.3
aF10.4
aF10.5
aF10.6
aF10.7
aF10.8
aF10.9
aF11.0
aF11.1
aF11.2
aF11.3
aF11.4
aF11.5
aF11.6
aF11.7
aF11.8
aF11.9
aF12.0
aF12.1
aF12.2
aF12.3
aF12.4
aF12.5
aF12.6
aF12.7
aF12.8
aF12.9
aF13.0
aF13.1
aF13.2
aF13.3
aF13.4
aF13.5
aF13.6
aF13.7
aF13.8
aF13.9
aF14.0
aF14.1
aF14.2
aF14.3
aF14.4
aF14.5
aF14.6
aF14.7
aF14.8
aF14.9
aF15.0
aF15.1
aF15.2
aF15.3
aF15.4
aF15.5
aF15.6
aF15.7
aF15.8
aF15.9
aF16.0
aF16.1
aF16.2
aF16.3
aF16.4
aF16.5
aF16.6
aF16.7
aF16.8
aF16.9
aF17.0
aF17.1
aF17.2
aF17.3
aF17.4
aF17.5
aF17.6
aF17.7
aF17.8
aF17.9
aF18.0
aF18.1
aF18.2
aF18.3
aF18.4
aF18.5
aF18.6
aF18.7
aF18.8
aF18.9
aF19.0
aF19.1
aF19.2
aF19.3
aF19.4
aF19.5
aF19.6
aF19.7
aF19.8
aF19.9
aF20.0
aF20.1
aF20.2
aF20.3
aF20.4
aF20.5
aF20.6
aF20.7
aF20.8
aF20.9
aF21.0
aF21.1
aF21.2
aF21.3
aF21.4
aF21.5
aF21.6
aF21.7
aF21.8
aF21.9
aF22.0
aF22.1
aF22.2
aF22.3
aF22.4
aF22.5
aF22.6
aF22.7
aF22.8
aF22.9
aF23.0
aF23.1
aF23.2
aF23.3
aF23.4
aF23.5
aF23.6
aF23.7
aF23.8
aF23.9
aa(lp1212
(lp1213
F0.248883502170767
aF0.15156275061589974
aa(lp1214
F0.25217701065001835
aF0.1516421992908161
aa(lp1215
F0.25532276119402986
aF0.15249822303784502
aa(lp1216
F0.25611846558856716
aF0.15160837941405203
aa(lp1217
F0.2503931203931204
aF0.14975212429825654
aa(lp1218
F0.2547551622418879
aF0.1498524945751004
aa(lp1219
F0.25107256333190214
aF0.14847840902083878
aa(lp1220
F0.249741979213737
aF0.14999013178831064
aa(lp1221
F0.2550081484834767
aF0.14619122418180594
aa(lp1222
F0.24996528095020557
aF0.14742762820518024
aa(lp1223
F0.25678391304347825
aF0.1512802543512611
aa(lp1224
F0.2536681797548797
aF0.14631703295356496
aa(lp1225
F0.25202212806026364
aF0.14700144026002437
aa(lp1226
F0.24773608349900597
aF0.1450702617202207
aa(lp1227
F0.2523712342079689
aF0.14908715656074653
aa(lp1228
F0.25586472019464723
aF0.14971958923367037
aa(lp1229
F0.2512979970688813
aF0.15037630904334467
aa(lp1230
F0.25001566579634465
aF0.15294762411040183
aa(lp1231
F0.254142555438226
aF0.15362990825701034
aa(lp1232
F0.2552273230088496
aF0.15050600792969993
aa(lp1233
F0.24772659176029962
aF0.1491300886640998
aa(lp1234
F0.2514291294642857
aF0.15733052796707167
aa(lp1235
F0.25396162790697674
aF0.1571564648091882
aa(lp1236
F0.2472369976359338
aF0.15193076320797577
aa(lp1237
F0.24952892561983472
aF0.1565621313592574
aa(lp1238
F0.249791167192429
aF0.16205843634510092
aa(lp1239
F0.23972739018087857
aF0.15521487693230138
aa(lp1240
F0.24299863574351976
aF0.15300395051062465
aa(lp1241
F0.2580266575529733
aF0.16959184518641068
aa(lp1242
F0.2452905923344948
aF0.157091135021137
aa(lp1243
F0.24958815132048537
aF0.1613707828115821
aa(lp1244
F0.2580633855331842
aF0.17396399441381602
aa(lp1245
F0.255272202166065
aF0.1737693815442503
aa(lp1246
F0.254188863807374
aF0.17478519001041296
aa(lp1247
F0.25294704049844235
aF0.17454123900781557
aa(lp1248
F0.24913108614232207
aF0.1711082669698665
aa(lp1249
F0.24971644162033357
aF0.168756665698083
aa(lp1250
F0.2528639240506329
aF0.17843627221568537
aa(lp1251
F0.24885623510722796
aF0.1823361319289186
aa(lp1252
F0.25205851979345956
aF0.18116557737621847
aa(lp1253
F0.24673966942148762
aF0.17530275594357478
aa(lp1254
F0.24381854838709677
aF0.17901085085626336
aa(lp1255
F0.2560379310344828
aF0.18647473517947166
aa(lp1256
F0.24263495934959348
aF0.17765420443128804
aa(lp1257
F0.25160750228728274
aF0.19511022670883954
aa(lp1258
F0.2425625531914894
aF0.188886247805844
aa(lp1259
F0.24018682310469314
aF0.18751020286029618
aa(lp1260
F0.24155000000000001
aF0.19254590720862366
aa(lp1261
F0.25204013961605587
aF0.19937308327605893
aa(lp1262
F0.2517965641952984
aF0.20300004508602124
aa(lp1263
F0.24764452113891283
aF0.19934608890811312
aa(lp1264
F0.2518621013133208
aF0.2076776997549001
aa(lp1265
F0.2423641456582633
aF0.20920865581169384
aa(lp1266
F0.24343619909502265
aF0.20690605091642414
aa(lp1267
F0.24281349911190056
aF0.20741119402945232
aa(lp1268
F0.24543589743589744
aF0.22000629134721947
aa(lp1269
F0.249128892733564
aF0.2118248884628041
aa(lp1270
F0.24871353711790392
aF0.21205488973115888
aa(lp1271
F0.2424677284157586
aF0.21333941394698172
aa(lp1272
F0.24823285351397123
aF0.2174883923754024
aa(lp1273
F0.23401924619085807
aF0.21652286001015103
aa(lp1274
F0.238794498381877
aF0.21323725700584245
aa(lp1275
F0.24668425135764158
aF0.22131865620782773
aa(lp1276
F0.24293216280925778
aF0.2211924899243027
aa(lp1277
F0.2375473515248796
aF0.225767152156774
aa(lp1278
F0.24181825095057033
aF0.22488025151295654
aa(lp1279
F0.23934749620637327
aF0.22136529975418467
aa(lp1280
F0.24194982332155476
aF0.2227440311683221
aa(lp1281
F0.24168360433604338
aF0.22321010432633384
aa(lp1282
F0.23961654135338345
aF0.2291109102748937
aa(lp1283
F0.22944079355238686
aF0.21343512039430662
aa(lp1284
F0.23762003780718338
aF0.2267236818708135
aa(lp1285
F0.23613630573248406
aF0.22201735534479686
aa(lp1286
F0.23541006752608962
aF0.21980922887267465
aa(lp1287
F0.2379040767386091
aF0.2218032340982332
aa(lp1288
F0.23811415259172974
aF0.21956801945347207
aa(lp1289
F0.23650123152709357
aF0.23058213452585535
aa(lp1290
F0.23884768599882836
aF0.2307923280992509
aa(lp1291
F0.23663125000000002
aF0.2261455201724304
aa(lp1292
F0.23650548245614036
aF0.2279341143282173
aa(lp1293
F0.23146802935010483
aF0.22282254897642076
aa(lp1294
F0.23896974358974357
aF0.2264183630430056
aa(lp1295
F0.23862209014363547
aF0.22475461418624473
aa(lp1296
F0.2331206099815157
aF0.218385907905063
aa(lp1297
F0.23639923591212988
aF0.22434296938282644
aa(lp1298
F0.23471546961325968
aF0.22178325902655682
aa(lp1299
F0.23729780564263322
aF0.22560719837064633
aa(lp1300
F0.23546017699115043
aF0.22495712976657362
aa(lp1301
F0.2339519896193772
aF0.22547106673494594
aa(lp1302
F0.23471223958333334
aF0.22703001748315954
aa(lp1303
F0.23237196652719666
aF0.22405079658015759
aa(lp1304
F0.23630648492358527
aF0.22563210803637113
aa(lp1305
F0.23348911753066878
aF0.22309823492589873
aa(lp1306
F0.232744745892243
aF0.22388016048266343
aa(lp1307
F0.23597779450508094
aF0.22373011092349368
aa(lp1308
F0.23277299270072993
aF0.2206403710758079
aa(lp1309
F0.2332820232896652
aF0.2249269496201716
aa(lp1310
F0.23905644599303136
aF0.22341400661853278
aa(lp1311
F0.23340707350901524
aF0.22459980835826265
aa(lp1312
F0.2363803313359182
aF0.2284532483448152
aa(lp1313
F0.2317331954498449
aF0.225093230870875
aa(lp1314
F0.23786585788561526
aF0.23123226182072293
aa(lp1315
F0.23728604806408543
aF0.2292368975774943
aa(lp1316
F0.23531592438321053
aF0.2257901159082159
aa(lp1317
F0.23794121510673233
aF0.22713575950279025
aa(lp1318
F0.2396436170212766
aF0.23084341723354082
aa(lp1319
F0.23848219350772137
aF0.23128636944767547
aa(lp1320
F0.23894548932100734
aF0.23372925783685036
aa(lp1321
F0.24179446517412936
aF0.2338987014336381
aa(lp1322
F0.2381978159126365
aF0.23237299874241335
aa(lp1323
F0.23723083752589522
aF0.23180231999609976
aa(lp1324
F0.23555353351531697
aF0.23375504174079295
aa(lp1325
F0.23786428571428572
aF0.23502695120408024
aa(lp1326
F0.23838607971445566
aF0.23359403422626732
aa(lp1327
F0.2391193045563549
aF0.23848165297488433
aa(lp1328
F0.23927834128878284
aF0.23819788153801144
aa(lp1329
F0.24252446906740535
aF0.24337918573591993
aa(lp1330
F0.24085569400173862
aF0.23897921572085395
aa(lp1331
F0.2436702519105576
aF0.2420930701175595
aa(lp1332
F0.23776538461538463
aF0.24296720869560107
aa(lp1333
F0.2412868194842407
aF0.24240948699429443
aa(lp1334
F0.23993106432073838
aF0.24540465923784185
aa(lp1335
F0.24049514563106797
aF0.24615068555059627
aa(lp1336
F0.2385574855252275
aF0.2429003736018887
aa(lp1337
F0.2384641628440367
aF0.24789477906083376
aa(lp1338
F0.24220910913778287
aF0.2520636257913581
aa(lp1339
F0.24403191180736872
aF0.25315171807628367
aa(lp1340
F0.24614476416493622
aF0.25928106454536304
aa(lp1341
F0.24699244332493703
aF0.25203999753454687
aa(lp1342
F0.2433258426966292
aF0.26000207887216836
aa(lp1343
F0.24313275572945778
aF0.25640810876225245
aa(lp1344
F0.24190836197021764
aF0.2598325500683114
aa(lp1345
F0.24818758895530887
aF0.26291393731337526
aa(lp1346
F0.24341208015805815
aF0.26119816675450563
aa(lp1347
F0.24413641520136134
aF0.26405031832109543
aa(lp1348
F0.2410752688172043
aF0.263089968876279
aa(lp1349
F0.24578547392035896
aF0.26700605436588176
aa(lp1350
F0.24935736153632063
aF0.2672274755799646
aa(lp1351
F0.24771804511278198
aF0.2706492713572264
aa(lp1352
F0.2432999147969327
aF0.2691012077742516
aa(lp1353
F0.24424474517708036
aF0.2732552527767829
aa(lp1354
F0.24526737813671762
aF0.2740727098785877
aa(lp1355
F0.2486874453830469
aF0.2789715302566451
aa(lp1356
F0.2454890300230947
aF0.27700761655825507
aa(lp1357
F0.24479662021938925
aF0.2813564671195549
aa(lp1358
F0.2442672018348624
aF0.27970547569010273
aa(lp1359
F0.2470154609101517
aF0.2851737316892476
aa(lp1360
F0.25315607094133696
aF0.28181440201918645
aa(lp1361
F0.2510423295454545
aF0.28707922131405883
aa(lp1362
F0.24405430387059504
aF0.2859878826012779
aa(lp1363
F0.24204818281938326
aF0.28224234249586067
aa(lp1364
F0.24754078908335805
aF0.29287287483394875
aa(lp1365
F0.24231320541760723
aF0.2875200818089159
aa(lp1366
F0.241439376443418
aF0.29121535251228514
aa(lp1367
F0.2488592935726694
aF0.2956361401661442
aa(lp1368
F0.24543620346689402
aF0.2930380715503777
aa(lp1369
F0.24447771260997067
aF0.2981050915147577
aa(lp1370
F0.24411277982431284
aF0.2953163928020333
aa(lp1371
F0.24827791563275434
aF0.29610080211657097
aa(lp1372
F0.24126266628927256
aF0.29899917062312936
aa(lp1373
F0.23713779637377963
aF0.2964658759538367
aa(lp1374
F0.2454262726740784
aF0.305558922585173
aa(lp1375
F0.2488766252528171
aF0.3074026479285162
aa(lp1376
F0.24983930602957904
aF0.30703873577352964
aa(lp1377
F0.24831657458563536
aF0.30486679319520266
aa(lp1378
F0.24606939245608986
aF0.31088268504118294
aa(lp1379
F0.24793243997766612
aF0.3088895189102742
aa(lp1380
F0.24901214361140445
aF0.30457155986445306
aa(lp1381
F0.25428911279037225
aF0.3141406826854071
aa(lp1382
F0.24843086907449208
aF0.3148501263298714
aa(lp1383
F0.2449548913043478
aF0.31101520608462546
aa(lp1384
F0.24493417721518987
aF0.31626974064184193
aa(lp1385
F0.24773439686537924
aF0.3169583541227701
aa(lp1386
F0.24838079561042523
aF0.31666868724205793
aa(lp1387
F0.24641193101498443
aF0.3220447059830797
aa(lp1388
F0.25086029833620194
aF0.32730066949828956
aa(lp1389
F0.24814326895358893
aF0.3272302448719806
aa(lp1390
F0.2525702277657267
aF0.3265088285747283
aa(lp1391
F0.2537093435031327
aF0.3252215588829659
aa(lp1392
F0.2520884520884521
aF0.32587274128432125
aa(lp1393
F0.25078460300429184
aF0.32416233053480303
aa(lp1394
F0.25088479645527556
aF0.3301353663751721
aa(lp1395
F0.24965327462850853
aF0.3316098955071262
aa(lp1396
F0.24931190669921344
aF0.3287402281906572
aa(lp1397
F0.24984710624820042
aF0.3397815253501908
aa(lp1398
F0.24810341064120053
aF0.3348681043744509
aa(lp1399
F0.2513783708646094
aF0.33835433048518726
aa(lp1400
F0.24979228243021345
aF0.3390364825129858
aa(lp1401
F0.24955642760487146
aF0.3366940713285543
aa(lp1402
F0.25234576004200576
aF0.3377782884863984
aa(lp1403
F0.2513619441571872
aF0.33532800475465596
aa(lp1404
F0.25506175402179554
aF0.3402121707509227
aa(lp1405
F0.24977047049649076
aF0.3390715721287434
aa(lp1406
F0.25003217697335345
aF0.33468636588681405
aa(lp1407
F0.2532700477960701
aF0.3449636331512594
aa(lp1408
F0.24957752868961838
aF0.3456251260692707
aa(lp1409
F0.24872130299896586
aF0.34451877501358147
aa(lp1410
F0.2533359936153232
aF0.3488267061918444
aa(lp1411
F0.2508326827998959
aF0.3476268498099017
aa(lp1412
F0.2511751354139799
aF0.3487238943786213
aa(lp1413
F0.2502818067754078
aF0.3444779883688221
aa(lp1414
F0.2474401228249744
aF0.3481227733369035
aa(lp1415
F0.2530032508127032
aF0.34736487864908605
aa(lp1416
F0.25001019646854017
aF0.34761629951291256
aa(lp1417
F0.2513066799106034
aF0.3509459618228979
aa(lp1418
F0.24821633888048414
aF0.35279843113191434
aa(lp1419
F0.2517999499874969
aF0.3551047981918112
aa(lp1420
F0.25206835836354224
aF0.3608988002804562
aa(lp1421
F0.25179862475442044
aF0.3544753503135738
aa(lp1422
F0.2535639344262295
aF0.3589212432981249
aa(lp1423
F0.2500187979223349
aF0.3577132843603337
aa(lp1424
F0.2572724587743047
aF0.3603674943946552
aa(lp1425
F0.2565031831537708
aF0.3608722604755789
aa(lp1426
F0.2496337526703062
aF0.35619521583741554
aa(lp1427
F0.2529163452266152
aF0.3602168625716634
aa(lp1428
F0.25025065460604623
aF0.35812794835841105
aa(lp1429
F0.26069275222730554
aF0.36713415458700716
aa(lp1430
F0.25198545101842873
aF0.36522693071698065
aa(lp1431
F0.2576905862320603
aF0.36868211814492247
aa(lp1432
F0.2544981870920957
aF0.3689396505181692
aa(lp1433
F0.25558776844070963
aF0.36410980042573327
aa(lp1434
F0.2481979571984436
aF0.3697620037232482
aa(lp1435
F0.2571529859624078
aF0.3698352761919163
aa(lp1436
F0.2538549085659288
aF0.37312688663274685
aa(lp1437
F0.2573938574938575
aF0.3783648342695907
aa(lp1438
F0.25457177497575173
aF0.37790502259303815
aa(lp1439
F0.25676717467760846
aF0.37633209239017984
aa(lp1440
F0.26583646233883734
aF0.3738978454270544
aa(lp1441
F0.26049551949624605
aF0.38356252969726995
aa(lp1442
F0.25202029475718773
aF0.3812719713879848
aa(lp1443
F0.2570557701593433
aF0.38444991581841026
aa(lp1444
F0.258434251497006
aF0.3844934750026405
aa(lp1445
F0.2603256611165524
aF0.3894649340058234
aa(lp1446
F0.25773392116182575
aF0.3992304936131992
aa(lp1447
F0.25575791098533573
aF0.39901844352013655
aa(lp1448
F0.2554244622959316
aF0.4024469500733204
aa(lp1449
F0.2632318384474167
aF0.40911326032412565
aa(lp1450
F0.26037729981860586
aF0.4068440927097264
aa(lp1451
F0.2604829457364341
aF0.4072576717006863
aa(lp1452
F0.2586070287539936
aF0.41397821461635914
aaa(lp1453
F0.0
aF0.1
aF0.2
aF0.3
aF0.4
aF0.5
aF0.6
aF0.7
aF0.8
aF0.9
aF1.0
aF1.1
aF1.2
aF1.3
aF1.4
aF1.5
aF1.6
aF1.7
aF1.8
aF1.9
aF2.0
aF2.1
aF2.2
aF2.3
aF2.4
aF2.5
aF2.6
aF2.7
aF2.8
aF2.9
aF3.0
aF3.1
aF3.2
aF3.3
aF3.4
aF3.5
aF3.6
aF3.7
aF3.8
aF3.9
aF4.0
aF4.1
aF4.2
aF4.3
aF4.4
aF4.5
aF4.6
aF4.7
aF4.8
aF4.9
aF5.0
aF5.1
aF5.2
aF5.3
aF5.4
aF5.5
aF5.6
aF5.7
aF5.8
aF5.9
aF6.0
aF6.1
aF6.2
aF6.3
aF6.4
aF6.5
aF6.6
aF6.7
aF6.8
aF6.9
aF7.0
aF7.1
aF7.2
aF7.3
aF7.4
aF7.5
aF7.6
aF7.7
aF7.8
aF7.9
aF8.0
aF8.1
aF8.2
aF8.3
aF8.4
aF8.5
aF8.6
aF8.7
aF8.8
aF8.9
aF9.0
aF9.1
aF9.2
aF9.3
aF9.4
aF9.5
aF9.6
aF9.7
aF9.8
aF9.9
aF10.0
aF10.1
aF10.2
aF10.3
aF10.4
aF10.5
aF10.6
aF10.7
aF10.8
aF10.9
aF11.0
aF11.1
aF11.2
aF11.3
aF11.4
aF11.5
aF11.6
aF11.7
aF11.8
aF11.9
aF12.0
aF12.1
aF12.2
aF12.3
aF12.4
aF12.5
aF12.6
aF12.7
aF12.8
aF12.9
aF13.0
aF13.1
aF13.2
aF13.3
aF13.4
aF13.5
aF13.6
aF13.7
aF13.8
aF13.9
aF14.0
aF14.1
aF14.2
aF14.3
aF14.4
aF14.5
aF14.6
aF14.7
aF14.8
aF14.9
aF15.0
aF15.1
aF15.2
aF15.3
aF15.4
aF15.5
aF15.6
aF15.7
aF15.8
aF15.9
aF16.0
aF16.1
aF16.2
aF16.3
aF16.4
aF16.5
aF16.6
aF16.7
aF16.8
aF16.9
aF17.0
aF17.1
aF17.2
aF17.3
aF17.4
aF17.5
aF17.6
aF17.7
aF17.8
aF17.9
aF18.0
aF18.1
aF18.2
aF18.3
aF18.4
aF18.5
aF18.6
aF18.7
aF18.8
aF18.9
aF19.0
aF19.1
aF19.2
aF19.3
aF19.4
aF19.5
aF19.6
aF19.7
aF19.8
aF19.9
aF20.0
aF20.1
aF20.2
aF20.3
aF20.4
aF20.5
aF20.6
aF20.7
aF20.8
aF20.9
aF21.0
aF21.1
aF21.2
aF21.3
aF21.4
aF21.5
aF21.6
aF21.7
aF21.8
aF21.9
aF22.0
aF22.1
aF22.2
aF22.3
aF22.4
aF22.5
aF22.6
aF22.7
aF22.8
aF22.9
aF23.0
aF23.1
aF23.2
aF23.3
aF23.4
aF23.5
aF23.6
aF23.7
aF23.8
aF23.9
aa(lp1454
(lp1455
F0.2491907190209077
aF0.14954072660589648
aa(lp1456
F0.25686805001330143
aF0.15227172652703053
aa(lp1457
F0.2536389201349831
aF0.1517253814789656
aa(lp1458
F0.24983969465648856
aF0.14748246895862904
aa(lp1459
F0.25186512866015975
aF0.15126154168753228
aa(lp1460
F0.2543716374269006
aF0.15213559845895563
aa(lp1461
F0.25177375707992444
aF0.14754559836930292
aa(lp1462
F0.24968246292714377
aF0.1460883299150539
aa(lp1463
F0.25080385525870813
aF0.15374673416561857
aa(lp1464
F0.25254249244205573
aF0.150793293051793
aa(lp1465
F0.2539065013404826
aF0.15162113460605336
aa(lp1466
F0.25275249722530524
aF0.1549321016259312
aa(lp1467
F0.2527724810400867
aF0.14846875299289622
aa(lp1468
F0.2523624631268437
aF0.15154045431831226
aa(lp1469
F0.2558162376237624
aF0.15264711634767966
aa(lp1470
F0.2562574139976275
aF0.15741355803412185
aa(lp1471
F0.26188458466453673
aF0.1592560882855033
aa(lp1472
F0.25776502963590175
aF0.15237437537750514
aa(lp1473
F0.25683937145351377
aF0.15858142548970583
aa(lp1474
F0.26225112511251125
aF0.15926458051342618
aa(lp1475
F0.2511416366906475
aF0.15528158565394667
aa(lp1476
F0.25351756756756755
aF0.1564294252404474
aa(lp1477
F0.2512066473988439
aF0.15324929897953368
aa(lp1478
F0.25617815802717664
aF0.1587603775137466
aa(lp1479
F0.2565110759493671
aF0.15836710928112793
aa(lp1480
F0.2543984210526316
aF0.16006570431340886
aa(lp1481
F0.25185778781038376
aF0.16248036872693924
aa(lp1482
F0.2582818753573471
aF0.16458596210455337
aa(lp1483
F0.2581560324825986
aF0.16220871930047212
aa(lp1484
F0.25476320814767667
aF0.16702266887875658
aa(lp1485
F0.24989874176153387
aF0.16387839464014392
aa(lp1486
F0.25937793278376664
aF0.1724317137555272
aa(lp1487
F0.26368428005284017
aF0.1770835275631634
aa(lp1488
F0.257649967040211
aF0.1731712954874556
aa(lp1489
F0.25477170868347343
aF0.1733460788517588
aa(lp1490
F0.2556465696465697
aF0.17617775616898318
aa(lp1491
F0.2540558659217877
aF0.17433671216578092
aa(lp1492
F0.25495129615082485
aF0.1781402726661411
aa(lp1493
F0.25233001658374793
aF0.18068113324731777
aa(lp1494
F0.25642931937172775
aF0.18652709456971475
aa(lp1495
F0.2482840722495895
aF0.18360991149225478
aa(lp1496
F0.26108498349834985
aF0.19003598739263491
aa(lp1497
F0.24266288209606987
aF0.18396889909056738
aa(lp1498
F0.24995311091073036
aF0.18791629012796604
aa(lp1499
F0.2495304347826087
aF0.1950776559931946
aa(lp1500
F0.2501583880037488
aF0.19423180632820955
aa(lp1501
F0.2610461254612546
aF0.20187252153935278
aa(lp1502
F0.24560747663551402
aF0.19840654547509046
aa(lp1503
F0.2472849162011173
aF0.19765457649202275
aa(lp1504
F0.25377634194831017
aF0.20727128539235093
aa(lp1505
F0.24505028462998105
aF0.20417271131214693
aa(lp1506
F0.2400610465116279
aF0.20532053707031273
aa(lp1507
F0.25419166666666665
aF0.2121217526059919
aa(lp1508
F0.24708648111332007
aF0.21260702888775979
aa(lp1509
F0.2512061855670103
aF0.22641421798136738
aa(lp1510
F0.24607984790874524
aF0.21669628518310075
aa(lp1511
F0.25026966292134833
aF0.22394485350320162
aa(lp1512
F0.24736108422071637
aF0.2189779782465873
aa(lp1513
F0.25109859154929576
aF0.2271632007754794
aa(lp1514
F0.2447415730337079
aF0.21942298590260656
aa(lp1515
F0.24458104265402844
aF0.22648838269559332
aa(lp1516
F0.23219439579684764
aF0.21695816962167047
aa(lp1517
F0.2425663082437276
aF0.22719614822808307
aa(lp1518
F0.232829203539823
aF0.22966802019587687
aa(lp1519
F0.24097588126159553
aF0.2329469742781822
aa(lp1520
F0.2361297852474323
aF0.2328315843940619
aa(lp1521
F0.2313192041522491
aF0.22964363360082954
aa(lp1522
F0.2472036395147314
aF0.23278510044160847
aa(lp1523
F0.2401922746781116
aF0.23193021474295855
aa(lp1524
F0.23887294727744163
aF0.24056173506298473
aa(lp1525
F0.22921825396825396
aF0.23221643477915146
aa(lp1526
F0.23810426179604263
aF0.23267035003809555
aa(lp1527
F0.23200389711613406
aF0.23450763134270827
aa(lp1528
F0.23333699921445406
aF0.23807001511522416
aa(lp1529
F0.2321875901875902
aF0.23470046849307163
aa(lp1530
F0.23859637681159418
aF0.2396982454313341
aa(lp1531
F0.23461049723756908
aF0.23643804344918223
aa(lp1532
F0.2360077030812325
aF0.24133050220208116
aa(lp1533
F0.23465963240299523
aF0.24016634763054795
aa(lp1534
F0.229379712131597
aF0.23615774360047675
aa(lp1535
F0.2312721212121212
aF0.23408702804632467
aa(lp1536
F0.23387705416920268
aF0.23825063973792632
aa(lp1537
F0.22960481503229593
aF0.23297072313520736
aa(lp1538
F0.2358617079889807
aF0.23214331899942078
aa(lp1539
F0.22738231917336396
aF0.23437290102501732
aa(lp1540
F0.23300973096737262
aF0.2403510996604825
aa(lp1541
F0.23816879511382566
aF0.24031225368290846
aa(lp1542
F0.233
aF0.241715902033904
aa(lp1543
F0.23465581643543224
aF0.24041995981005237
aa(lp1544
F0.2334430785676109
aF0.2415317891721042
aa(lp1545
F0.23092793682132282
aF0.23612631844232
aa(lp1546
F0.2333986387943607
aF0.23433071461371807
aa(lp1547
F0.23143560606060604
aF0.23754492880018527
aa(lp1548
F0.2362239221140473
aF0.2368546116740221
aa(lp1549
F0.23315318744053284
aF0.2433915317577566
aa(lp1550
F0.23853333333333332
aF0.2413911653257242
aa(lp1551
F0.23588156761412574
aF0.23494026891400804
aa(lp1552
F0.23455167844522967
aF0.24147265261138562
aa(lp1553
F0.23916910229645091
aF0.2380977072046146
aa(lp1554
F0.23772608695652173
aF0.24559952960205214
aa(lp1555
F0.23778253968253968
aF0.23800867411222268
aa(lp1556
F0.23134992163009405
aF0.23635348697152803
aa(lp1557
F0.2336704456606724
aF0.23841195305783097
aa(lp1558
F0.23254791252485088
aF0.24107044905325617
aa(lp1559
F0.23471411718442786
aF0.2426496886981965
aa(lp1560
F0.22867820069204153
aF0.23977847761726562
aa(lp1561
F0.2392093663911846
aF0.2494808425393139
aa(lp1562
F0.2381590106007067
aF0.2490597042728925
aa(lp1563
F0.2351255016417366
aF0.24232528421045357
aa(lp1564
F0.23550493171471928
aF0.24876109946221495
aa(lp1565
F0.24100558854348586
aF0.24875825780925556
aa(lp1566
F0.23692759365994237
aF0.2482902547650401
aa(lp1567
F0.23560872727272728
aF0.2512290045525461
aa(lp1568
F0.239997840949982
aF0.25169041600763353
aa(lp1569
F0.2372930350054132
aF0.25340785753076117
aa(lp1570
F0.2385635474860335
aF0.2529053867082347
aa(lp1571
F0.23800211267605637
aF0.2521364310201832
aa(lp1572
F0.24297774637937125
aF0.25755728416854434
aa(lp1573
F0.23912141592920355
aF0.25771854594015386
aa(lp1574
F0.24203983930364914
aF0.25517313262811475
aa(lp1575
F0.23681732389619142
aF0.2562348237300298
aa(lp1576
F0.2423686746987952
aF0.2612101579340269
aa(lp1577
F0.2389432624113475
aF0.26205443940561457
aa(lp1578
F0.24433901705115346
aF0.2615526717110098
aa(lp1579
F0.24863993288590605
aF0.26476846982655544
aa(lp1580
F0.24088015240734328
aF0.26644979824928927
aa(lp1581
F0.24554587458745875
aF0.26398955350355635
aa(lp1582
F0.24610212335692616
aF0.26887430231226117
aa(lp1583
F0.24204361979166666
aF0.2653371393351597
aa(lp1584
F0.24426254180602008
aF0.27082498580385483
aa(lp1585
F0.2430399871009352
aF0.26963998282153895
aa(lp1586
F0.24794885420126203
aF0.2761894819528393
aa(lp1587
F0.24721473951715373
aF0.2708069916075924
aa(lp1588
F0.24319117647058824
aF0.27696659189892187
aa(lp1589
F0.24703110823071936
aF0.27628248352244883
aa(lp1590
F0.24323710349247038
aF0.2761391084679128
aa(lp1591
F0.24318300873069174
aF0.28289186914300424
aa(lp1592
F0.24680073308897035
aF0.2835866045487029
aa(lp1593
F0.24502660098522167
aF0.28559119632953156
aa(lp1594
F0.24715798045602605
aF0.28497854948314855
aa(lp1595
F0.25009316965690903
aF0.2837342736472326
aa(lp1596
F0.2471597805035507
aF0.2886553529546281
aa(lp1597
F0.2453086624626618
aF0.29264968074260433
aa(lp1598
F0.24712594293210888
aF0.2915537207097229
aa(lp1599
F0.24981706913661925
aF0.29491271737027813
aa(lp1600
F0.24625496476617553
aF0.29279957235287146
aa(lp1601
F0.2490848243870113
aF0.29721006449062815
aa(lp1602
F0.24545524899057874
aF0.30025356223001376
aa(lp1603
F0.25269592373438526
aF0.3039055066375645
aa(lp1604
F0.24453523871386812
aF0.3007243529021135
aa(lp1605
F0.2427819265767179
aF0.296584634672542
aa(lp1606
F0.2514817945383615
aF0.3051168156840406
aa(lp1607
F0.2429888
aF0.30152257280404615
aa(lp1608
F0.24281465658889254
aF0.30694105696018525
aa(lp1609
F0.24905441719852203
aF0.31302162228234026
aa(lp1610
F0.2483310924369748
aF0.3151672802667758
aa(lp1611
F0.2501518530665792
aF0.3139374011297378
aa(lp1612
F0.24926727334007415
aF0.3208278491397345
aa(lp1613
F0.2505803511141121
aF0.3190047653503883
aa(lp1614
F0.24729466759002772
aF0.3261203503870483
aa(lp1615
F0.24933625042073376
aF0.3233060787668853
aa(lp1616
F0.2524119579500657
aF0.3221438003930688
aa(lp1617
F0.24990840197693576
aF0.32380573054289175
aa(lp1618
F0.2463605355435129
aF0.31971270547407066
aa(lp1619
F0.25177922523140217
aF0.3327091789293526
aa(lp1620
F0.24935556289204358
aF0.32877860818950316
aa(lp1621
F0.25039809782608696
aF0.3350131462568537
aa(lp1622
F0.2559847592656737
aF0.33846383501403426
aa(lp1623
F0.25263138440860217
aF0.3370125881641135
aa(lp1624
F0.2449316062176166
aF0.341090972173934
aa(lp1625
F0.24895907230559344
aF0.3406435162276864
aa(lp1626
F0.2520241610738255
aF0.3407739509109675
aa(lp1627
F0.24792874692874695
aF0.3489477604368794
aa(lp1628
F0.24637905654064907
aF0.3440481716572004
aa(lp1629
F0.24678603998596982
aF0.35272808645893144
aa(lp1630
F0.24801479986545574
aF0.348592936599565
aa(lp1631
F0.24857609427609426
aF0.35010919015773434
aa(lp1632
F0.2452938816449348
aF0.3503682872087837
aa(lp1633
F0.24600509510869567
aF0.3537258397866639
aa(lp1634
F0.24541134267167747
aF0.3538277357079203
aa(lp1635
F0.2458323966942149
aF0.3526307067630718
aa(lp1636
F0.25095113151853066
aF0.3547240284934411
aa(lp1637
F0.25307413914265636
aF0.36746006626721217
aa(lp1638
F0.24921419098143235
aF0.3606862372416378
aa(lp1639
F0.2500582651391162
aF0.3573416977375848
aa(lp1640
F0.2463980996068152
aF0.3591090596445228
aa(lp1641
F0.25012312120243047
aF0.35921495746704935
aa(lp1642
F0.2512842105263158
aF0.36570162112936466
aa(lp1643
F0.2516784300791557
aF0.36618196356712646
aa(lp1644
F0.2459254698639015
aF0.36530377796719393
aa(lp1645
F0.24730504148053606
aF0.3640580131724959
aa(lp1646
F0.2545404979514655
aF0.3645747432202035
aa(lp1647
F0.24881637239165327
aF0.3697579616635107
aa(lp1648
F0.25090597204574333
aF0.36888633150289235
aa(lp1649
F0.24869803328290468
aF0.36293461490534906
aa(lp1650
F0.25350758054327227
aF0.371221396924981
aa(lp1651
F0.2542638324476399
aF0.3728251309603662
aa(lp1652
F0.2493266871165644
aF0.36900747976455855
aa(lp1653
F0.2503176761433869
aF0.3733638795215095
aa(lp1654
F0.251304089915704
aF0.3762196588069746
aa(lp1655
F0.24921891311022415
aF0.3752099686192723
aa(lp1656
F0.2534790145985401
aF0.37559780503964013
aa(lp1657
F0.25435013420817176
aF0.3762001134247879
aa(lp1658
F0.25231440162271807
aF0.37261604276502436
aa(lp1659
F0.25297858417608565
aF0.3761598690538365
aa(lp1660
F0.24831325301204818
aF0.37517595012802296
aa(lp1661
F0.25062842012356573
aF0.37871867541395837
aa(lp1662
F0.25185313484111077
aF0.3751853607017862
aa(lp1663
F0.2508235460191982
aF0.3749690393756943
aa(lp1664
F0.25214285714285717
aF0.3810281068074671
aa(lp1665
F0.25362347472399766
aF0.3832612734501144
aa(lp1666
F0.24961966179421038
aF0.3802775077251502
aa(lp1667
F0.254338962962963
aF0.390848698937688
aa(lp1668
F0.2550585264408794
aF0.3909911653388647
aa(lp1669
F0.25196882969679796
aF0.3849108690931586
aa(lp1670
F0.25279261862917396
aF0.3909892032255694
aa(lp1671
F0.25401494252873563
aF0.3913018590976931
aa(lp1672
F0.2572410580102194
aF0.40093516310305105
aa(lp1673
F0.25323958624545706
aF0.3902067568714132
aa(lp1674
F0.2515684931506849
aF0.3866961701758839
aa(lp1675
F0.2514608671171171
aF0.3933507454475058
aa(lp1676
F0.25486163878650414
aF0.3960887028024502
aa(lp1677
F0.2537408553742262
aF0.3979036752017218
aa(lp1678
F0.2526287492925863
aF0.3981319402758815
aa(lp1679
F0.2577625777275297
aF0.4018992740143869
aa(lp1680
F0.2532760283687943
aF0.40161018648827324
aa(lp1681
F0.2544457527333894
aF0.4023771670154469
aa(lp1682
F0.2534766171940633
aF0.4025242435058464
aa(lp1683
F0.2552221577726218
aF0.4109094267061126
aa(lp1684
F0.25633110659308744
aF0.41238603149365727
aa(lp1685
F0.25722115384615385
aF0.4220799917743052
aa(lp1686
F0.2567295487627365
aF0.4166946089546373
aa(lp1687
F0.26046398046398045
aF0.4278827815333672
aa(lp1688
F0.25808520179372196
aF0.4251904972440206
aa(lp1689
F0.25936660447761195
aF0.4345236517993458
aa(lp1690
F0.2554408044112877
aF0.44306177212860604
aa(lp1691
F0.252765856737141
aF0.4392568837620584
aa(lp1692
F0.25890582079790714
aF0.4496687156517721
aa(lp1693
F0.25510273752012885
aF0.4466388139188286
aa(lp1694
F0.2557673805601318
aF0.45394363517857755
aaa.