(lp0
(lp1
F0.0
aF0.1
aF0.2
aF0.3
aF0.4
aF0.5
aF0.6
aF0.7
aF0.8
aF0.9
aF1.0
aF1.1
aF1.2
aF1.3
aF1.4
aF1.5
aF1.6
aF1.7
aF1.8
aF1.9
aF2.0
aF2.1
aF2.2
aF2.3
aF2.4
aF2.5
aF2.6
aF2.7
aF2.8
aF2.9
aF3.0
aF3.1
aF3.2
aF3.3
aF3.4
aF3.5
aF3.6
aF3.7
aF3.8
aF3.9
aF4.0
aF4.1
aF4.2
aF4.3
aF4.4
aF4.5
aF4.6
aF4.7
aF4.8
aF4.9
aF5.0
aF5.1
aF5.2
aF5.3
aF5.4
aF5.5
aF5.6
aF5.7
aF5.8
aF5.9
aF6.0
aF6.1
aF6.2
aF6.3
aF6.4
aF6.5
aF6.6
aF6.7
aF6.8
aF6.9
aF7.0
aF7.1
aF7.2
aF7.3
aF7.4
aF7.5
aF7.6
aF7.7
aF7.8
aF7.9
aF8.0
aF8.1
aF8.2
aF8.3
aF8.4
aF8.5
aF8.6
aF8.7
aF8.8
aF8.9
aF9.0
aF9.1
aF9.2
aF9.3
aF9.4
aF9.5
aF9.6
aF9.7
aF9.8
aF9.9
aF10.0
aF10.1
aF10.2
aF10.3
aF10.4
aF10.5
aF10.6
aF10.7
aF10.8
aF10.9
aF11.0
aF11.1
aF11.2
aF11.3
aF11.4
aF11.5
aF11.6
aF11.7
aF11.8
aF11.9
aF12.0
aF12.1
aF12.2
aF12.3
aF12.4
aF12.5
aF12.6
aF12.7
aF12.8
aF12.9
aF13.0
aF13.1
aF13.2
aF13.3
aF13.4
aF13.5
aF13.6
aF13.7
aF13.8
aF13.9
aF14.0
aF14.1
aF14.2
aF14.3
aF14.4
aF14.5
aF14.6
aF14.7
aF14.8
aF14.9
aF15.0
aF15.1
aF15.2
aF15.3
aF15.4
aF15.5
aF15.6
aF15.7
aF15.8
aF15.9
aF16.0
aF16.1
aF16.2
aF16.3
aF16.4
aF16.5
aF16.6
aF16.7
aF16.8
aF16.9
aF17.0
aF17.1
aF17.2
aF17.3
aF17.4
aF17.5
aF17.6
aF17.7
aF17.8
aF17.9
aF18.0
aF18.1
aF18.2
aF18.3
aF18.4
aF18.5
aF18.6
aF18.7
aF18.8
aF18.9
aF19.0
aF19.1
aF19.2
aF19.3
aF19.4
aF19.5
aF19.6
aF19.7
aF19.8
aF19.9
aF20.0
aF20.1
aF20.2
aF20.3
aF20.4
aF20.5
aF20.6
aF20.7
aF20.8
aF20.9
aF21.0
aF21.1
aF21.2
aF21.3
aF21.4
aF21.5
aF21.6
aF21.7
aF21.8
aF21.9
aF22.0
aF22.1
aF22.2
aF22.3
aF22.4
aF22.5
aF22.6
aF22.7
aF22.8
aF22.9
aF23.0
aF23.1
aF23.2
aF23.3
aF23.4
aF23.5
aF23.6
aF23.7
aF23.8
aF23.9
aa(lp2
(lp3
F0.27297504378283716
aF0.1471884254241539
aa(lp4
F0.2776192022263451
aF0.152372579856426
aa(lp5
F0.272487899543379
aF0.14648292995712153
aa(lp6
F0.2744507332722273
aF0.15206113166246427
aa(lp7
F0.2819292766934558
aF0.14779678239982214
aa(lp8
F0.2810475546540455
aF0.1525339553071181
aa(lp9
F0.2755807930323172
aF0.15104887017371443
aa(lp10
F0.2788588344555375
aF0.1475841452471122
aa(lp11
F0.2777084257206208
aF0.15035706712217523
aa(lp12
F0.27694922139471906
aF0.14807894573634317
aa(lp13
F0.27486903962390863
aF0.14593722493004355
aa(lp14
F0.27515561165939867
aF0.14722938358257306
aa(lp15
F0.2823723964293889
aF0.15207536140806063
aa(lp16
F0.27775317050258336
aF0.15033799175414556
aa(lp17
F0.2766347406513872
aF0.1489208875295969
aa(lp18
F0.2803943281566509
aF0.15114756822026296
aa(lp19
F0.2777118836628039
aF0.1534831369686796
aa(lp20
F0.2757106695055595
aF0.14825953276454795
aa(lp21
F0.2792370848708487
aF0.15099132347243271
aa(lp22
F0.27816623681125435
aF0.15356583613147523
aa(lp23
F0.2789326367274344
aF0.15096172208987832
aa(lp24
F0.2824685714285714
aF0.155268431263237
aa(lp25
F0.27988938364190297
aF0.15453920267644788
aa(lp26
F0.2832781158440388
aF0.15503934955670687
aa(lp27
F0.2764221292422129
aF0.15290898665173291
aa(lp28
F0.28551531322505797
aF0.15931528507290801
aa(lp29
F0.281519818799547
aF0.15661823027168134
aa(lp30
F0.28136651690707026
aF0.1527457446593544
aa(lp31
F0.2785804889298893
aF0.15270337614590698
aa(lp32
F0.2770997871837314
aF0.1520701083537865
aa(lp33
F0.27627064322279105
aF0.15481242988095573
aa(lp34
F0.2821193615544761
aF0.16005793607000784
aa(lp35
F0.28387072578866096
aF0.15885541217794316
aa(lp36
F0.28295091070635275
aF0.15857686361270631
aa(lp37
F0.28479986149584485
aF0.16024164063724547
aa(lp38
F0.2821048951048951
aF0.1579634512962781
aa(lp39
F0.27858941605839416
aF0.15445930285187393
aa(lp40
F0.28476238553651095
aF0.16307628279397976
aa(lp41
F0.2799228624535316
aF0.15836790343992344
aa(lp42
F0.2865277710988219
aF0.15961491096816788
aa(lp43
F0.28417051108095887
aF0.162355027068586
aa(lp44
F0.27926609635299415
aF0.15839029226030144
aa(lp45
F0.28956872465074357
aF0.166430427934827
aa(lp46
F0.2824693971468017
aF0.16301111840892915
aa(lp47
F0.2842592320860846
aF0.16649985103540285
aa(lp48
F0.28243426175501646
aF0.16532028786427042
aa(lp49
F0.2864652185156452
aF0.1667960689793866
aa(lp50
F0.28237424986361154
aF0.16850903727201996
aa(lp51
F0.2826890335503255
aF0.17080315263360668
aa(lp52
F0.27779033066132264
aF0.16576990412676793
aa(lp53
F0.2822462197580645
aF0.17061774536917812
aa(lp54
F0.28646077935222675
aF0.17203027515801966
aa(lp55
F0.28087178841309823
aF0.1702032174582265
aa(lp56
F0.28215914036996737
aF0.17244543958434422
aa(lp57
F0.2815399396102114
aF0.17557179742568807
aa(lp58
F0.2789119804400978
aF0.1733631676643736
aa(lp59
F0.28325975443383355
aF0.17423833680164236
aa(lp60
F0.2820433117265763
aF0.17781650621651054
aa(lp61
F0.2836505780346821
aF0.17955049278419455
aa(lp62
F0.279806125397284
aF0.17911568169950043
aa(lp63
F0.27782561958793667
aF0.18018773576473984
aa(lp64
F0.2861433756805808
aF0.18319055003401025
aa(lp65
F0.2862061364313375
aF0.1841165059663201
aa(lp66
F0.28173095823095823
aF0.18434690826430586
aa(lp67
F0.2799630230295167
aF0.18870202484500595
aa(lp68
F0.28070754716981133
aF0.18653407387454568
aa(lp69
F0.2837353133159269
aF0.1870310034680773
aa(lp70
F0.2832653612424038
aF0.18879747205116112
aa(lp71
F0.28500460677854556
aF0.193643919916702
aa(lp72
F0.2842382584847446
aF0.19509707004156732
aa(lp73
F0.2791837133550489
aF0.19507426494829655
aa(lp74
F0.28098828647925034
aF0.19430295751817642
aa(lp75
F0.27932755632582323
aF0.19654030641453007
aa(lp76
F0.2834940476190476
aF0.20180775119136038
aa(lp77
F0.2839599389545975
aF0.2038261727547363
aa(lp78
F0.27411381215469616
aF0.20346453181868357
aa(lp79
F0.2776724392041267
aF0.20427128110428402
aa(lp80
F0.2783916083916084
aF0.2085186097070173
aa(lp81
F0.2879992116673236
aF0.21179906107127025
aa(lp82
F0.2862746561886051
aF0.2134903513418968
aa(lp83
F0.27677676620538966
aF0.2101443880043455
aa(lp84
F0.2822235294117647
aF0.21398097168184022
aa(lp85
F0.27788199233716476
aF0.21492283519355276
aa(lp86
F0.27370047244094486
aF0.20431007525897668
aa(lp87
F0.2819468673218673
aF0.20552477196647861
aa(lp88
F0.2759316923076923
aF0.20593510710828825
aa(lp89
F0.2777328
aF0.21230318586830849
aa(lp90
F0.27863215514544887
aF0.2119663064873125
aa(lp91
F0.27918207816968543
aF0.21267944793619933
aa(lp92
F0.27848421391752576
aF0.21188202837872164
aa(lp93
F0.2729682722815114
aF0.20789558369280062
aa(lp94
F0.2766882516188714
aF0.2152115437932151
aa(lp95
F0.28204996876951904
aF0.21855794028110212
aa(lp96
F0.2775439787485242
aF0.21286017320168002
aa(lp97
F0.27102600697748175
aF0.2182823433766953
aa(lp98
F0.27031828090937404
aF0.21944405592606187
aa(lp99
F0.2761010354565422
aF0.2207532626515555
aa(lp100
F0.2814581979320532
aF0.2206249909321701
aa(lp101
F0.2727385581812743
aF0.21848824032642283
aa(lp102
F0.27899166666666664
aF0.2244796024903799
aa(lp103
F0.27416050397151465
aF0.21731883775944458
aa(lp104
F0.27185084033613444
aF0.2273124940236493
aa(lp105
F0.2801027633851468
aF0.22454548026534243
aa(lp106
F0.2769413994169096
aF0.22664617349930907
aa(lp107
F0.27824143160448894
aF0.231967252812895
aa(lp108
F0.2757854330708661
aF0.22402852018898928
aa(lp109
F0.27734295513003715
aF0.22965173900389693
aa(lp110
F0.274974804031355
aF0.22841315652446642
aa(lp111
F0.2751733762748256
aF0.2255450966076156
aa(lp112
F0.28290871734663925
aF0.23796092252547768
aa(lp113
F0.2769202953908836
aF0.2274193077367137
aa(lp114
F0.2782174611676486
aF0.23102378361120052
aa(lp115
F0.2738830832902225
aF0.23146534679470054
aa(lp116
F0.27916934619506967
aF0.23432511197173067
aa(lp117
F0.2778051774753136
aF0.23414943696416302
aa(lp118
F0.2771328839672605
aF0.22844410379698474
aa(lp119
F0.2764935699588478
aF0.23439484554271298
aa(lp120
F0.2777981605766841
aF0.23524988571429706
aa(lp121
F0.27622698945349955
aF0.23158690769167037
aa(lp122
F0.27672141668647493
aF0.23224450807549948
aa(lp123
F0.2794682363394047
aF0.22976831204042553
aa(lp124
F0.2744698075646981
aF0.23015930522291086
aa(lp125
F0.2763406365313653
aF0.23442153982612296
aa(lp126
F0.27482460035523976
aF0.23130962750917286
aa(lp127
F0.2783464423732666
aF0.23797289676701658
aa(lp128
F0.2736541748849441
aF0.23252409202720278
aa(lp129
F0.2788895599654875
aF0.23488399553872935
aa(lp130
F0.2755050396740296
aF0.2368656556601444
aa(lp131
F0.27413280434328674
aF0.2350092701278816
aa(lp132
F0.2784855334538879
aF0.2426166596956354
aa(lp133
F0.2786144987728903
aF0.22921867190099074
aa(lp134
F0.27620273704789833
aF0.231540963940161
aa(lp135
F0.2817916745865805
aF0.2345084445913765
aa(lp136
F0.2815818795723129
aF0.2356707536572466
aa(lp137
F0.27759608860506885
aF0.23905863221685292
aa(lp138
F0.2774350389956249
aF0.23564314017225105
aa(lp139
F0.2829495509268106
aF0.23688105195541806
aa(lp140
F0.2728533158486324
aF0.23555782650617565
aa(lp141
F0.27544489198095934
aF0.23524384249085845
aa(lp142
F0.2783693150684931
aF0.23908657366099928
aa(lp143
F0.2789254699717185
aF0.2309213761546326
aa(lp144
F0.27566258594667115
aF0.23359316279222483
aa(lp145
F0.2776752281176073
aF0.23399571554647927
aa(lp146
F0.2786325331542723
aF0.23483148102851853
aa(lp147
F0.27787875700458486
aF0.23728965564911225
aa(lp148
F0.2770750204750205
aF0.23518340896415793
aa(lp149
F0.2780528416347382
aF0.23475917369225652
aa(lp150
F0.27953086215455897
aF0.2389723048700491
aa(lp151
F0.2813975036005761
aF0.23775074054322148
aa(lp152
F0.2801511532798953
aF0.24179910190689147
aa(lp153
F0.2761828648325359
aF0.2341749786921689
aa(lp154
F0.2800742778541953
aF0.23667544176720587
aa(lp155
F0.2800348590481964
aF0.2381812503454699
aa(lp156
F0.2796215133302512
aF0.2398633751186187
aa(lp157
F0.27867743453034344
aF0.24188646515833104
aa(lp158
F0.27793262961813103
aF0.24139998726611622
aa(lp159
F0.2803015531293249
aF0.24299757517347717
aa(lp160
F0.2832646325363063
aF0.2409661526193515
aa(lp161
F0.279494897264934
aF0.23476438142851497
aa(lp162
F0.27440861257269455
aF0.2352325515329291
aa(lp163
F0.27463926411938766
aF0.2299592627936409
aa(lp164
F0.27581978798586576
aF0.23309096342720156
aa(lp165
F0.27465888544056133
aF0.2378026982632193
aa(lp166
F0.2728868375614292
aF0.23541750327502595
aa(lp167
F0.274057880055788
aF0.24079435629301232
aa(lp168
F0.2750518822724161
aF0.23931144362622545
aa(lp169
F0.2743506988564168
aF0.2444824781712109
aa(lp170
F0.27406183064400974
aF0.24566865258880757
aa(lp171
F0.27442528899671753
aF0.2465509719389266
aa(lp172
F0.27286925492435055
aF0.24689078063840567
aa(lp173
F0.27505597014925376
aF0.24691808006482863
aa(lp174
F0.27201052328095715
aF0.2492075705910215
aa(lp175
F0.2725605361775728
aF0.2508544352461958
aa(lp176
F0.27523612097117706
aF0.2513916738693428
aa(lp177
F0.2748713570797763
aF0.2549023469336125
aa(lp178
F0.27598122245640927
aF0.2814396877589936
aa(lp179
F0.27973563218390807
aF0.28224439393226497
aa(lp180
F0.27710774299835256
aF0.27030420409428124
aa(lp181
F0.2728877824019025
aF0.2596347419708134
aa(lp182
F0.27048466448699987
aF0.26363234459626456
aa(lp183
F0.2724632280005668
aF0.25605004966756
aa(lp184
F0.2740450614474283
aF0.2647370848017134
aa(lp185
F0.2733932567049809
aF0.2648026707964985
aa(lp186
F0.2720333632555356
aF0.2654030409346558
aa(lp187
F0.2738598666873353
aF0.26949166770841226
aa(lp188
F0.2776540928527795
aF0.2692054796497561
aa(lp189
F0.278811973955852
aF0.2742746965667904
aa(lp190
F0.27505041635124905
aF0.2689528807450803
aa(lp191
F0.27432893511331885
aF0.2740782596374883
aa(lp192
F0.272046034214619
aF0.27437685060468947
aa(lp193
F0.27462829600226824
aF0.2661020000055162
aa(lp194
F0.27443595505617974
aF0.2733357381267714
aa(lp195
F0.2790483895131086
aF0.2745114715321112
aa(lp196
F0.2789353859496964
aF0.2723510574058352
aa(lp197
F0.27320068085106386
aF0.28997652224281695
aa(lp198
F0.27266983796640404
aF0.2765593149216925
aa(lp199
F0.27646442234123947
aF0.280381670507807
aa(lp200
F0.2743608600810221
aF0.2832449501199196
aa(lp201
F0.27875093283582086
aF0.2838198811310947
aa(lp202
F0.2763442396313364
aF0.2843257701642663
aa(lp203
F0.2758363073293025
aF0.28191154397875595
aa(lp204
F0.28235396434265836
aF0.283060718216118
aa(lp205
F0.2899018118059614
aF0.28749551661932776
aa(lp206
F0.27952122814749525
aF0.28462798169528886
aa(lp207
F0.28261340607950114
aF0.29375731432675384
aa(lp208
F0.28003847292098255
aF0.2867581725401725
aa(lp209
F0.2832727412179782
aF0.29202741096540435
aa(lp210
F0.28289563253012046
aF0.29245892176134825
aa(lp211
F0.2770441109595271
aF0.29334416061714835
aa(lp212
F0.27839621489621486
aF0.2955096266851777
aa(lp213
F0.2808784651298512
aF0.29148098065563555
aa(lp214
F0.28238082741586906
aF0.2988022457660653
aa(lp215
F0.284560153256705
aF0.30087872880642097
aa(lp216
F0.282644172705314
aF0.29865509154294456
aa(lp217
F0.28074431287005297
aF0.3034962129720273
aa(lp218
F0.27996752537080405
aF0.30360755894891306
aa(lp219
F0.2808905648267009
aF0.30936428347256717
aa(lp220
F0.2809674267100977
aF0.30649725049485743
aa(lp221
F0.2815104199557941
aF0.3107457066080191
aa(lp222
F0.2810901571546733
aF0.31395781127008676
aa(lp223
F0.2802232115907033
aF0.30696793978501685
aa(lp224
F0.2807333645735708
aF0.31076288596624224
aa(lp225
F0.28262369172216933
aF0.3149244069311882
aa(lp226
F0.28118202465931214
aF0.3169221530696984
aa(lp227
F0.27836988068365043
aF0.3166981878981672
aa(lp228
F0.2830703575547866
aF0.3220020003452189
aa(lp229
F0.27889588497768963
aF0.3219088697099535
aa(lp230
F0.281091059056417
aF0.3256236962736108
aa(lp231
F0.2816527940929686
aF0.32696267150609903
aa(lp232
F0.27883056534138567
aF0.3282454646228473
aa(lp233
F0.2828808323849781
aF0.3259403106735552
aa(lp234
F0.2832219772765813
aF0.3339014284382716
aa(lp235
F0.28382055630936226
aF0.33493015593574765
aa(lp236
F0.2823530720520281
aF0.3370810106983577
aa(lp237
F0.28371704290884026
aF0.33853945459969326
aa(lp238
F0.2816901213171577
aF0.3395059618538737
aa(lp239
F0.2824160558464223
aF0.3430707200566356
aa(lp240
F0.28339874191857417
aF0.3435462830490371
aa(lp241
F0.28526711599858107
aF0.3483452944404829
aa(lp242
F0.28496528395940895
aF0.3504964144014274
aaa(lp243
F0.0
aF0.1
aF0.2
aF0.3
aF0.4
aF0.5
aF0.6
aF0.7
aF0.8
aF0.9
aF1.0
aF1.1
aF1.2
aF1.3
aF1.4
aF1.5
aF1.6
aF1.7
aF1.8
aF1.9
aF2.0
aF2.1
aF2.2
aF2.3
aF2.4
aF2.5
aF2.6
aF2.7
aF2.8
aF2.9
aF3.0
aF3.1
aF3.2
aF3.3
aF3.4
aF3.5
aF3.6
aF3.7
aF3.8
aF3.9
aF4.0
aF4.1
aF4.2
aF4.3
aF4.4
aF4.5
aF4.6
aF4.7
aF4.8
aF4.9
aF5.0
aF5.1
aF5.2
aF5.3
aF5.4
aF5.5
aF5.6
aF5.7
aF5.8
aF5.9
aF6.0
aF6.1
aF6.2
aF6.3
aF6.4
aF6.5
aF6.6
aF6.7
aF6.8
aF6.9
aF7.0
aF7.1
aF7.2
aF7.3
aF7.4
aF7.5
aF7.6
aF7.7
aF7.8
aF7.9
aF8.0
aF8.1
aF8.2
aF8.3
aF8.4
aF8.5
aF8.6
aF8.7
aF8.8
aF8.9
aF9.0
aF9.1
aF9.2
aF9.3
aF9.4
aF9.5
aF9.6
aF9.7
aF9.8
aF9.9
aF10.0
aF10.1
aF10.2
aF10.3
aF10.4
aF10.5
aF10.6
aF10.7
aF10.8
aF10.9
aF11.0
aF11.1
aF11.2
aF11.3
aF11.4
aF11.5
aF11.6
aF11.7
aF11.8
aF11.9
aF12.0
aF12.1
aF12.2
aF12.3
aF12.4
aF12.5
aF12.6
aF12.7
aF12.8
aF12.9
aF13.0
aF13.1
aF13.2
aF13.3
aF13.4
aF13.5
aF13.6
aF13.7
aF13.8
aF13.9
aF14.0
aF14.1
aF14.2
aF14.3
aF14.4
aF14.5
aF14.6
aF14.7
aF14.8
aF14.9
aF15.0
aF15.1
aF15.2
aF15.3
aF15.4
aF15.5
aF15.6
aF15.7
aF15.8
aF15.9
aF16.0
aF16.1
aF16.2
aF16.3
aF16.4
aF16.5
aF16.6
aF16.7
aF16.8
aF16.9
aF17.0
aF17.1
aF17.2
aF17.3
aF17.4
aF17.5
aF17.6
aF17.7
aF17.8
aF17.9
aF18.0
aF18.1
aF18.2
aF18.3
aF18.4
aF18.5
aF18.6
aF18.7
aF18.8
aF18.9
aF19.0
aF19.1
aF19.2
aF19.3
aF19.4
aF19.5
aF19.6
aF19.7
aF19.8
aF19.9
aF20.0
aF20.1
aF20.2
aF20.3
aF20.4
aF20.5
aF20.6
aF20.7
aF20.8
aF20.9
aF21.0
aF21.1
aF21.2
aF21.3
aF21.4
aF21.5
aF21.6
aF21.7
aF21.8
aF21.9
aF22.0
aF22.1
aF22.2
aF22.3
aF22.4
aF22.5
aF22.6
aF22.7
aF22.8
aF22.9
aF23.0
aF23.1
aF23.2
aF23.3
aF23.4
aF23.5
aF23.6
aF23.7
aF23.8
aF23.9
aa(lp244
(lp245
F0.27845650080256823
aF0.14861801485806775
aa(lp246
F0.2805098718392795
aF0.1501139072887454
aa(lp247
F0.276803831024457
aF0.14832452445892869
aa(lp248
F0.27795067488751873
aF0.1517327339983953
aa(lp249
F0.2815909565217391
aF0.15222672044721422
aa(lp250
F0.2791761562865253
aF0.14876557818828143
aa(lp251
F0.28021112033195017
aF0.15018492886346949
aa(lp252
F0.2804540558734433
aF0.14905028243978657
aa(lp253
F0.2795748502994012
aF0.1501464540020275
aa(lp254
F0.27697322330751095
aF0.14923141181944247
aa(lp255
F0.2815868681943767
aF0.1510656112132962
aa(lp256
F0.28110121790651743
aF0.14944318531810888
aa(lp257
F0.2819558727034121
aF0.14986271712321672
aa(lp258
F0.2781838499184339
aF0.15110332885063835
aa(lp259
F0.27828397269180755
aF0.14972794322556124
aa(lp260
F0.2823756113465928
aF0.1548577212855425
aa(lp261
F0.2800031514347321
aF0.15107889090601845
aa(lp262
F0.2846778401585205
aF0.15503533944444906
aa(lp263
F0.28174188148644125
aF0.1540008305649947
aa(lp264
F0.2826748696219035
aF0.1546940679670836
aa(lp265
F0.28176824902723735
aF0.1535844583722167
aa(lp266
F0.2817411003236246
aF0.15380752614750187
aa(lp267
F0.28119879909120415
aF0.15193402507185647
aa(lp268
F0.2769603502395506
aF0.1533682980454236
aa(lp269
F0.27849876217197556
aF0.15323044180770906
aa(lp270
F0.27757173030056864
aF0.15230700563360544
aa(lp271
F0.27770686306247977
aF0.1527700347718874
aa(lp272
F0.28105667824439534
aF0.15339212068905392
aa(lp273
F0.28084095584744423
aF0.15234544119770618
aa(lp274
F0.2833417431192661
aF0.15492905625861741
aa(lp275
F0.2840047036688617
aF0.15675436210526747
aa(lp276
F0.28327968253968255
aF0.15627579574935965
aa(lp277
F0.28327507163323784
aF0.1593471519501216
aa(lp278
F0.282068954248366
aF0.15925050334111648
aa(lp279
F0.2915313931156744
aF0.16574945737770955
aa(lp280
F0.31940487571701726
aF0.172501385884505
aa(lp281
F0.2931491313412092
aF0.15651060862417174
aa(lp282
F0.2810710821461049
aF0.1542094833368531
aa(lp283
F0.2824854153455929
aF0.15703430988811873
aa(lp284
F0.2825994738572838
aF0.1583495341255832
aa(lp285
F0.2813879877950859
aF0.1569737418841118
aa(lp286
F0.2873982026143791
aF0.16155898267564148
aa(lp287
F0.28665401633764465
aF0.16259653531427634
aa(lp288
F0.2826294107422215
aF0.15870077068083493
aa(lp289
F0.28141650117349704
aF0.15917016892173716
aa(lp290
F0.2785842190596289
aF0.1566664180816063
aa(lp291
F0.28082350739285045
aF0.16149317565149662
aa(lp292
F0.28355942398833395
aF0.1644354027091942
aa(lp293
F0.282643813015582
aF0.16396349829500778
aa(lp294
F0.28153737685918484
aF0.1637308579946238
aa(lp295
F0.2849816394658754
aF0.16433720619640305
aa(lp296
F0.2839007213363705
aF0.16643863798986572
aa(lp297
F0.2824763506827627
aF0.16814953852095843
aa(lp298
F0.28651478942213515
aF0.16821788631222423
aa(lp299
F0.2833757789779809
aF0.1659110573654596
aa(lp300
F0.2827890828817981
aF0.16836221569475404
aa(lp301
F0.27994636015325675
aF0.16708321973483592
aa(lp302
F0.2811856168902573
aF0.17073393712259308
aa(lp303
F0.2769611494252873
aF0.17106219928830366
aa(lp304
F0.28292050011795233
aF0.1735818097984549
aa(lp305
F0.28009528257823446
aF0.17359476255014689
aa(lp306
F0.27699593787335725
aF0.17366333205189044
aa(lp307
F0.2813601048617731
aF0.17484985616410664
aa(lp308
F0.2815691115952554
aF0.17617926775611198
aa(lp309
F0.2836912465512917
aF0.17911696271791985
aa(lp310
F0.28064683829042736
aF0.17902408216669088
aa(lp311
F0.2849926451273969
aF0.183925772824549
aa(lp312
F0.27742972103004293
aF0.1805930052231459
aa(lp313
F0.27786458333333336
aF0.18592263259821148
aa(lp314
F0.27973482167165803
aF0.18602200460497056
aa(lp315
F0.27597334348819497
aF0.1811903800832276
aa(lp316
F0.2750813228517213
aF0.1859126515118749
aa(lp317
F0.27486869250069695
aF0.1874423898512642
aa(lp318
F0.2731815443592552
aF0.1848869476509703
aa(lp319
F0.2725780296425458
aF0.19037736950459386
aa(lp320
F0.27334732933447586
aF0.19191769638313286
aa(lp321
F0.2784337171538234
aF0.19605837838420206
aa(lp322
F0.2723379821958457
aF0.19500502846701231
aa(lp323
F0.27826170717249554
aF0.19894321148796204
aa(lp324
F0.2762104767879548
aF0.20054080300823504
aa(lp325
F0.26846
aF0.19766141326126085
aa(lp326
F0.2725120588235294
aF0.20102115561083392
aa(lp327
F0.2649205357142857
aF0.19520767925977556
aa(lp328
F0.2769251101321586
aF0.2064042976327655
aa(lp329
F0.27345615141955837
aF0.20698432324178484
aa(lp330
F0.27054041780199817
aF0.20473698270682128
aa(lp331
F0.2733166559070368
aF0.20934202806512325
aa(lp332
F0.27613097787294794
aF0.21652014419504315
aa(lp333
F0.27392477064220183
aF0.23470097724698727
aa(lp334
F0.2656232018561485
aF0.2340819540396345
aa(lp335
F0.26625130890052356
aF0.22424874777717663
aa(lp336
F0.26688675302966985
aF0.23020356549748625
aa(lp337
F0.27617518897287685
aF0.2372994648564336
aa(lp338
F0.2679441316587267
aF0.23708946803864098
aa(lp339
F0.27018146214099215
aF0.23944883865760175
aa(lp340
F0.2718368734069669
aF0.23958060586381436
aa(lp341
F0.261740412979351
aF0.2380190485936394
aa(lp342
F0.26645395273023637
aF0.2382508743451672
aa(lp343
F0.2670492549668874
aF0.24289790913121148
aa(lp344
F0.2717697751873439
aF0.24411319815487684
aa(lp345
F0.2686997635933806
aF0.2400471550868639
aa(lp346
F0.2678807843137255
aF0.23965422469478195
aa(lp347
F0.2732858885725905
aF0.24763438299334298
aa(lp348
F0.2710779467680608
aF0.24573218235974936
aa(lp349
F0.2691099154496541
aF0.2477096086099327
aa(lp350
F0.262907709414381
aF0.24319347062088323
aa(lp351
F0.26434034699150977
aF0.2441617924072461
aa(lp352
F0.26964938455800075
aF0.2462084637455766
aa(lp353
F0.2730257787325457
aF0.24712984544567665
aa(lp354
F0.2779159881569208
aF0.25632000542155947
aa(lp355
F0.26767859554355167
aF0.2441198625036761
aa(lp356
F0.2796737911702873
aF0.25203195771773435
aa(lp357
F0.2699010722933241
aF0.2512563695119053
aa(lp358
F0.27507212543554005
aF0.2537598800168804
aa(lp359
F0.2701084792310333
aF0.2509339079126279
aa(lp360
F0.2727725088112784
aF0.24894417977014083
aa(lp361
F0.2697301117685733
aF0.2516508280091136
aa(lp362
F0.26888518758085383
aF0.25201387004703246
aa(lp363
F0.2689872935196951
aF0.24999445910080903
aa(lp364
F0.2710669048392335
aF0.25646016490881435
aa(lp365
F0.2682145147187409
aF0.24714321818846285
aa(lp366
F0.2743500447627574
aF0.25228358031147036
aa(lp367
F0.27279959746981025
aF0.248661202888787
aa(lp368
F0.27344898568019094
aF0.25600312712377266
aa(lp369
F0.27719993959528844
aF0.25770644535173576
aa(lp370
F0.27120237405906195
aF0.2575741009395432
aa(lp371
F0.27496258992805755
aF0.2563122517370697
aa(lp372
F0.27047446457990115
aF0.2528170969627506
aa(lp373
F0.2691959040689841
aF0.25090686440024895
aa(lp374
F0.27725070028011206
aF0.25915568701107977
aa(lp375
F0.27406360248447204
aF0.250591216293271
aa(lp376
F0.2731408195020747
aF0.2532164556663649
aa(lp377
F0.27327538769384696
aF0.25419368062560044
aa(lp378
F0.275515935777618
aF0.25084802870817285
aa(lp379
F0.27250696171059174
aF0.25470678477157316
aa(lp380
F0.27075287221570926
aF0.25086014391058875
aa(lp381
F0.269173517105587
aF0.2558763860366503
aa(lp382
F0.27205810546875
aF0.25783433179985177
aa(lp383
F0.273536268829664
aF0.2534133485776747
aa(lp384
F0.2693333333333333
aF0.2532668882624214
aa(lp385
F0.27560431034482763
aF0.25185953543668815
aa(lp386
F0.27192035980693285
aF0.2536283353165544
aa(lp387
F0.2711940804338003
aF0.2551628624860394
aa(lp388
F0.2757051724137931
aF0.2561781345452207
aa(lp389
F0.2716634377111962
aF0.25884507119581407
aa(lp390
F0.27360411899313497
aF0.25298868551299974
aa(lp391
F0.2759255729521216
aF0.2628312870002745
aa(lp392
F0.272495961580441
aF0.2605900632077892
aa(lp393
F0.27328574423480084
aF0.25732570297287843
aa(lp394
F0.26943686596157995
aF0.2597185544020894
aa(lp395
F0.2709744408945687
aF0.25449844028429114
aa(lp396
F0.27330395502911065
aF0.2570821785900603
aa(lp397
F0.2750995465787304
aF0.2631079967598439
aa(lp398
F0.2689886022795441
aF0.25911198982306083
aa(lp399
F0.2702154752233956
aF0.26298050722966576
aa(lp400
F0.2705909090909091
aF0.2602974834034476
aa(lp401
F0.2692963954685891
aF0.26430530507477856
aa(lp402
F0.2722933124755573
aF0.26212926211129883
aa(lp403
F0.2696343638525565
aF0.26259861723983835
aa(lp404
F0.2674565961732125
aF0.2654945023174164
aa(lp405
F0.26887461272097685
aF0.2583294482870077
aa(lp406
F0.2682011352885525
aF0.2602370851710655
aa(lp407
F0.2697910731244065
aF0.2653903910934483
aa(lp408
F0.2636936823104693
aF0.2574384135512384
aa(lp409
F0.2693861588861589
aF0.2743213127229392
aa(lp410
F0.2699701907790143
aF0.2725443823955943
aa(lp411
F0.2705099190283401
aF0.27473293056542336
aa(lp412
F0.2713262636273538
aF0.27497784676470566
aa(lp413
F0.2713427835051546
aF0.2749884219895459
aa(lp414
F0.2719015212169736
aF0.2779557110170156
aa(lp415
F0.2695652930934417
aF0.27456263496915184
aa(lp416
F0.27078745912675517
aF0.27476821815771946
aa(lp417
F0.27149990311955047
aF0.27738527632393983
aa(lp418
F0.269557869443332
aF0.28054936156964283
aa(lp419
F0.2709044382247101
aF0.28427740630508636
aa(lp420
F0.2683679471788716
aF0.2832277946445637
aa(lp421
F0.2702257521565327
aF0.29002473799048795
aa(lp422
F0.26935060975609754
aF0.28910811116023727
aa(lp423
F0.26833091135561554
aF0.29144465054064406
aa(lp424
F0.2697918012924071
aF0.2899350383600108
aa(lp425
F0.26886874503574265
aF0.28828816897248344
aa(lp426
F0.26924668164182153
aF0.29329767706382
aa(lp427
F0.2674692458161269
aF0.30050157993445725
aa(lp428
F0.27025672015003127
aF0.29902936688465276
aa(lp429
F0.27171968107427613
aF0.300386562943558
aa(lp430
F0.269383038585209
aF0.2972105593153345
aa(lp431
F0.27135853355426676
aF0.30149425408316866
aa(lp432
F0.26873709020784226
aF0.3067837039012309
aa(lp433
F0.27303983983983987
aF0.3012485416312855
aa(lp434
F0.27076086073893624
aF0.3032642513568916
aa(lp435
F0.27037816425120775
aF0.29712482716360217
aa(lp436
F0.2718264073694985
aF0.3067622298825663
aa(lp437
F0.274482275350371
aF0.3089466585387172
aa(lp438
F0.2728915214411592
aF0.30307036652045577
aa(lp439
F0.27611001642036126
aF0.3119131622462033
aa(lp440
F0.27144925158909167
aF0.31181895984395197
aa(lp441
F0.27237783171521035
aF0.31185967428564804
aa(lp442
F0.27467067494181535
aF0.30704070721756377
aa(lp443
F0.2679085255767302
aF0.3115621536377399
aa(lp444
F0.2769849832049002
aF0.31191510983411935
aa(lp445
F0.2707464918759232
aF0.3048369877361187
aa(lp446
F0.27029243353783233
aF0.3173559633759742
aa(lp447
F0.2742795851972346
aF0.32132851405620255
aa(lp448
F0.27422123176661267
aF0.319941395474196
aa(lp449
F0.2761914764694001
aF0.32191993937896884
aa(lp450
F0.2786606754888406
aF0.3216330567594271
aa(lp451
F0.279814650622757
aF0.3299193324007141
aa(lp452
F0.2723875468554769
aF0.32765093679571267
aa(lp453
F0.2740613534447615
aF0.326704996981253
aa(lp454
F0.27572232606438213
aF0.3322140172402784
aa(lp455
F0.2713421513324256
aF0.32330703419066026
aa(lp456
F0.27364589759407776
aF0.3330587591238752
aa(lp457
F0.2774132941916544
aF0.3376885523506292
aa(lp458
F0.27359877326565146
aF0.33988351452010684
aa(lp459
F0.27317327491785326
aF0.34449147890799087
aa(lp460
F0.274587890625
aF0.3453993270362007
aa(lp461
F0.273774102896671
aF0.34720756839973965
aa(lp462
F0.27320934371523914
aF0.35104941030459424
aa(lp463
F0.2770780619111709
aF0.3542543122604074
aa(lp464
F0.28057019064124783
aF0.35241805153284095
aa(lp465
F0.2716378653113088
aF0.348351773973307
aa(lp466
F0.27701796945193174
aF0.3600488067474609
aa(lp467
F0.2798658125421443
aF0.3613626305246268
aa(lp468
F0.2798443816561617
aF0.356953054572966
aa(lp469
F0.27291078743741465
aF0.3642251441316582
aa(lp470
F0.2780792792792793
aF0.3647174319351885
aa(lp471
F0.2759613724153602
aF0.36746337524158
aa(lp472
F0.27510776545166404
aF0.36867450673539426
aa(lp473
F0.2718520710059172
aF0.369803188021329
aa(lp474
F0.2807319098457889
aF0.3801239185012383
aa(lp475
F0.2766025756891098
aF0.37196139764800457
aa(lp476
F0.27800603668446716
aF0.378986595089534
aa(lp477
F0.27810237873134325
aF0.38040508041486987
aa(lp478
F0.27979191548001836
aF0.3797209778433905
aa(lp479
F0.27747901591895807
aF0.3868321594486264
aa(lp480
F0.2789531286077118
aF0.38338232278472667
aa(lp481
F0.2823153195488722
aF0.3880758956508801
aa(lp482
F0.2768876930276088
aF0.3874783751974397
aa(lp483
F0.2814468786808009
aF0.3909531295416168
aa(lp484
F0.2728850493653033
aF0.3905289090158773
aaa(lp485
F0.0
aF0.1
aF0.2
aF0.3
aF0.4
aF0.5
aF0.6
aF0.7
aF0.8
aF0.9
aF1.0
aF1.1
aF1.2
aF1.3
aF1.4
aF1.5
aF1.6
aF1.7
aF1.8
aF1.9
aF2.0
aF2.1
aF2.2
aF2.3
aF2.4
aF2.5
aF2.6
aF2.7
aF2.8
aF2.9
aF3.0
aF3.1
aF3.2
aF3.3
aF3.4
aF3.5
aF3.6
aF3.7
aF3.8
aF3.9
aF4.0
aF4.1
aF4.2
aF4.3
aF4.4
aF4.5
aF4.6
aF4.7
aF4.8
aF4.9
aF5.0
aF5.1
aF5.2
aF5.3
aF5.4
aF5.5
aF5.6
aF5.7
aF5.8
aF5.9
aF6.0
aF6.1
aF6.2
aF6.3
aF6.4
aF6.5
aF6.6
aF6.7
aF6.8
aF6.9
aF7.0
aF7.1
aF7.2
aF7.3
aF7.4
aF7.5
aF7.6
aF7.7
aF7.8
aF7.9
aF8.0
aF8.1
aF8.2
aF8.3
aF8.4
aF8.5
aF8.6
aF8.7
aF8.8
aF8.9
aF9.0
aF9.1
aF9.2
aF9.3
aF9.4
aF9.5
aF9.6
aF9.7
aF9.8
aF9.9
aF10.0
aF10.1
aF10.2
aF10.3
aF10.4
aF10.5
aF10.6
aF10.7
aF10.8
aF10.9
aF11.0
aF11.1
aF11.2
aF11.3
aF11.4
aF11.5
aF11.6
aF11.7
aF11.8
aF11.9
aF12.0
aF12.1
aF12.2
aF12.3
aF12.4
aF12.5
aF12.6
aF12.7
aF12.8
aF12.9
aF13.0
aF13.1
aF13.2
aF13.3
aF13.4
aF13.5
aF13.6
aF13.7
aF13.8
aF13.9
aF14.0
aF14.1
aF14.2
aF14.3
aF14.4
aF14.5
aF14.6
aF14.7
aF14.8
aF14.9
aF15.0
aF15.1
aF15.2
aF15.3
aF15.4
aF15.5
aF15.6
aF15.7
aF15.8
aF15.9
aF16.0
aF16.1
aF16.2
aF16.3
aF16.4
aF16.5
aF16.6
aF16.7
aF16.8
aF16.9
aF17.0
aF17.1
aF17.2
aF17.3
aF17.4
aF17.5
aF17.6
aF17.7
aF17.8
aF17.9
aF18.0
aF18.1
aF18.2
aF18.3
aF18.4
aF18.5
aF18.6
aF18.7
aF18.8
aF18.9
aF19.0
aF19.1
aF19.2
aF19.3
aF19.4
aF19.5
aF19.6
aF19.7
aF19.8
aF19.9
aF20.0
aF20.1
aF20.2
aF20.3
aF20.4
aF20.5
aF20.6
aF20.7
aF20.8
aF20.9
aF21.0
aF21.1
aF21.2
aF21.3
aF21.4
aF21.5
aF21.6
aF21.7
aF21.8
aF21.9
aF22.0
aF22.1
aF22.2
aF22.3
aF22.4
aF22.5
aF22.6
aF22.7
aF22.8
aF22.9
aF23.0
aF23.1
aF23.2
aF23.3
aF23.4
aF23.5
aF23.6
aF23.7
aF23.8
aF23.9
aa(lp486
(lp487
F0.27297504378283716
aF0.1471884254241539
aa(lp488
F0.2776192022263451
aF0.152372579856426
aa(lp489
F0.272487899543379
aF0.14648292995712153
aa(lp490
F0.2744507332722273
aF0.15206113166246427
aa(lp491
F0.2819292766934558
aF0.14779678239982214
aa(lp492
F0.2810475546540455
aF0.1525339553071181
aa(lp493
F0.2755807930323172
aF0.15104887017371443
aa(lp494
F0.2788588344555375
aF0.1475841452471122
aa(lp495
F0.2777084257206208
aF0.15035706712217523
aa(lp496
F0.27694922139471906
aF0.14807894573634317
aa(lp497
F0.27486903962390863
aF0.14593722493004355
aa(lp498
F0.27515561165939867
aF0.14722938358257306
aa(lp499
F0.2823723964293889
aF0.15207536140806063
aa(lp500
F0.27775317050258336
aF0.15033799175414556
aa(lp501
F0.2766347406513872
aF0.1489208875295969
aa(lp502
F0.2803943281566509
aF0.15114756822026296
aa(lp503
F0.2777118836628039
aF0.1534831369686796
aa(lp504
F0.2757106695055595
aF0.14825953276454795
aa(lp505
F0.2792370848708487
aF0.15099132347243271
aa(lp506
F0.27816623681125435
aF0.15356583613147523
aa(lp507
F0.2789326367274344
aF0.15096172208987832
aa(lp508
F0.2824685714285714
aF0.155268431263237
aa(lp509
F0.27988938364190297
aF0.15453920267644788
aa(lp510
F0.2832781158440388
aF0.15503934955670687
aa(lp511
F0.2764221292422129
aF0.15290898665173291
aa(lp512
F0.28551531322505797
aF0.15931528507290801
aa(lp513
F0.281519818799547
aF0.15661823027168134
aa(lp514
F0.28136651690707026
aF0.1527457446593544
aa(lp515
F0.2785804889298893
aF0.15270337614590698
aa(lp516
F0.2770997871837314
aF0.1520701083537865
aa(lp517
F0.27627064322279105
aF0.15481242988095573
aa(lp518
F0.2821193615544761
aF0.16005793607000784
aa(lp519
F0.28387072578866096
aF0.15885541217794316
aa(lp520
F0.28295091070635275
aF0.15857686361270631
aa(lp521
F0.28479986149584485
aF0.16024164063724547
aa(lp522
F0.2821048951048951
aF0.1579634512962781
aa(lp523
F0.27858941605839416
aF0.15445930285187393
aa(lp524
F0.28476238553651095
aF0.16307628279397976
aa(lp525
F0.2799228624535316
aF0.15836790343992344
aa(lp526
F0.2865277710988219
aF0.15961491096816788
aa(lp527
F0.28417051108095887
aF0.162355027068586
aa(lp528
F0.27926609635299415
aF0.15839029226030144
aa(lp529
F0.28956872465074357
aF0.166430427934827
aa(lp530
F0.2824693971468017
aF0.16301111840892915
aa(lp531
F0.2842592320860846
aF0.16649985103540285
aa(lp532
F0.28243426175501646
aF0.16532028786427042
aa(lp533
F0.2864652185156452
aF0.1667960689793866
aa(lp534
F0.28237424986361154
aF0.16850903727201996
aa(lp535
F0.2826890335503255
aF0.17080315263360668
aa(lp536
F0.27779033066132264
aF0.16576990412676793
aa(lp537
F0.2822462197580645
aF0.17061774536917812
aa(lp538
F0.28646077935222675
aF0.17203027515801966
aa(lp539
F0.28087178841309823
aF0.1702032174582265
aa(lp540
F0.28215914036996737
aF0.17244543958434422
aa(lp541
F0.2815399396102114
aF0.17557179742568807
aa(lp542
F0.2789119804400978
aF0.1733631676643736
aa(lp543
F0.28325975443383355
aF0.17423833680164236
aa(lp544
F0.2820433117265763
aF0.17781650621651054
aa(lp545
F0.2836505780346821
aF0.17955049278419455
aa(lp546
F0.279806125397284
aF0.17911568169950043
aa(lp547
F0.27782561958793667
aF0.18018773576473984
aa(lp548
F0.2861433756805808
aF0.18319055003401025
aa(lp549
F0.2862061364313375
aF0.1841165059663201
aa(lp550
F0.28173095823095823
aF0.18434690826430586
aa(lp551
F0.2799630230295167
aF0.18870202484500595
aa(lp552
F0.28070754716981133
aF0.18653407387454568
aa(lp553
F0.2837353133159269
aF0.1870310034680773
aa(lp554
F0.2832653612424038
aF0.18879747205116112
aa(lp555
F0.28500460677854556
aF0.193643919916702
aa(lp556
F0.2842382584847446
aF0.19509707004156732
aa(lp557
F0.2791837133550489
aF0.19507426494829655
aa(lp558
F0.28098828647925034
aF0.19430295751817642
aa(lp559
F0.27932755632582323
aF0.19654030641453007
aa(lp560
F0.2834940476190476
aF0.20180775119136038
aa(lp561
F0.2839599389545975
aF0.2038261727547363
aa(lp562
F0.27411381215469616
aF0.20346453181868357
aa(lp563
F0.2776724392041267
aF0.20427128110428402
aa(lp564
F0.2783916083916084
aF0.2085186097070173
aa(lp565
F0.2879992116673236
aF0.21179906107127025
aa(lp566
F0.2862746561886051
aF0.2134903513418968
aa(lp567
F0.27677676620538966
aF0.2101443880043455
aa(lp568
F0.2822235294117647
aF0.21398097168184022
aa(lp569
F0.27788199233716476
aF0.21492283519355276
aa(lp570
F0.27370047244094486
aF0.20431007525897668
aa(lp571
F0.2819468673218673
aF0.20552477196647861
aa(lp572
F0.2759316923076923
aF0.20593510710828825
aa(lp573
F0.2777328
aF0.21230318586830849
aa(lp574
F0.27863215514544887
aF0.2119663064873125
aa(lp575
F0.27918207816968543
aF0.21267944793619933
aa(lp576
F0.27848421391752576
aF0.21188202837872164
aa(lp577
F0.2729682722815114
aF0.20789558369280062
aa(lp578
F0.2766882516188714
aF0.2152115437932151
aa(lp579
F0.28204996876951904
aF0.21855794028110212
aa(lp580
F0.2775439787485242
aF0.21286017320168002
aa(lp581
F0.27102600697748175
aF0.2182823433766953
aa(lp582
F0.27031828090937404
aF0.21944405592606187
aa(lp583
F0.2761010354565422
aF0.2207532626515555
aa(lp584
F0.2814581979320532
aF0.2206249909321701
aa(lp585
F0.2727385581812743
aF0.21848824032642283
aa(lp586
F0.27899166666666664
aF0.2244796024903799
aa(lp587
F0.27416050397151465
aF0.21731883775944458
aa(lp588
F0.27185084033613444
aF0.2273124940236493
aa(lp589
F0.2801027633851468
aF0.22454548026534243
aa(lp590
F0.2769413994169096
aF0.22664617349930907
aa(lp591
F0.27824143160448894
aF0.231967252812895
aa(lp592
F0.2757854330708661
aF0.22402852018898928
aa(lp593
F0.27734295513003715
aF0.22965173900389693
aa(lp594
F0.274974804031355
aF0.22841315652446642
aa(lp595
F0.2751733762748256
aF0.2255450966076156
aa(lp596
F0.28290871734663925
aF0.23796092252547768
aa(lp597
F0.2769202953908836
aF0.2274193077367137
aa(lp598
F0.2782174611676486
aF0.23102378361120052
aa(lp599
F0.2738830832902225
aF0.23146534679470054
aa(lp600
F0.27916934619506967
aF0.23432511197173067
aa(lp601
F0.2778051774753136
aF0.23414943696416302
aa(lp602
F0.2771328839672605
aF0.22844410379698474
aa(lp603
F0.2764935699588478
aF0.23439484554271298
aa(lp604
F0.2777981605766841
aF0.23524988571429706
aa(lp605
F0.27622698945349955
aF0.23158690769167037
aa(lp606
F0.27672141668647493
aF0.23224450807549948
aa(lp607
F0.2794682363394047
aF0.22976831204042553
aa(lp608
F0.2744698075646981
aF0.23015930522291086
aa(lp609
F0.2763406365313653
aF0.23442153982612296
aa(lp610
F0.27482460035523976
aF0.23130962750917286
aa(lp611
F0.2783464423732666
aF0.23797289676701658
aa(lp612
F0.2736541748849441
aF0.23252409202720278
aa(lp613
F0.2788895599654875
aF0.23488399553872935
aa(lp614
F0.2755050396740296
aF0.2368656556601444
aa(lp615
F0.27413280434328674
aF0.2350092701278816
aa(lp616
F0.2784855334538879
aF0.2426166596956354
aa(lp617
F0.2786144987728903
aF0.22921867190099074
aa(lp618
F0.27620273704789833
aF0.231540963940161
aa(lp619
F0.2817916745865805
aF0.2345084445913765
aa(lp620
F0.2815818795723129
aF0.2356707536572466
aa(lp621
F0.27759608860506885
aF0.23905863221685292
aa(lp622
F0.2774350389956249
aF0.23564314017225105
aa(lp623
F0.2829495509268106
aF0.23688105195541806
aa(lp624
F0.2728533158486324
aF0.23555782650617565
aa(lp625
F0.27544489198095934
aF0.23524384249085845
aa(lp626
F0.2783693150684931
aF0.23908657366099928
aa(lp627
F0.2789254699717185
aF0.2309213761546326
aa(lp628
F0.27566258594667115
aF0.23359316279222483
aa(lp629
F0.2776752281176073
aF0.23399571554647927
aa(lp630
F0.2786325331542723
aF0.23483148102851853
aa(lp631
F0.27787875700458486
aF0.23728965564911225
aa(lp632
F0.2770750204750205
aF0.23518340896415793
aa(lp633
F0.2780528416347382
aF0.23475917369225652
aa(lp634
F0.27953086215455897
aF0.2389723048700491
aa(lp635
F0.2813975036005761
aF0.23775074054322148
aa(lp636
F0.2801511532798953
aF0.24179910190689147
aa(lp637
F0.2761828648325359
aF0.2341749786921689
aa(lp638
F0.2800742778541953
aF0.23667544176720587
aa(lp639
F0.2800348590481964
aF0.2381812503454699
aa(lp640
F0.2796215133302512
aF0.2398633751186187
aa(lp641
F0.27867743453034344
aF0.24188646515833104
aa(lp642
F0.27793262961813103
aF0.24139998726611622
aa(lp643
F0.2803015531293249
aF0.24299757517347717
aa(lp644
F0.2832646325363063
aF0.2409661526193515
aa(lp645
F0.279494897264934
aF0.23476438142851497
aa(lp646
F0.27440861257269455
aF0.2352325515329291
aa(lp647
F0.27463926411938766
aF0.2299592627936409
aa(lp648
F0.27581978798586576
aF0.23309096342720156
aa(lp649
F0.27465888544056133
aF0.2378026982632193
aa(lp650
F0.2728868375614292
aF0.23541750327502595
aa(lp651
F0.274057880055788
aF0.24079435629301232
aa(lp652
F0.2750518822724161
aF0.23931144362622545
aa(lp653
F0.2743506988564168
aF0.2444824781712109
aa(lp654
F0.27406183064400974
aF0.24566865258880757
aa(lp655
F0.27442528899671753
aF0.2465509719389266
aa(lp656
F0.27286925492435055
aF0.24689078063840567
aa(lp657
F0.27505597014925376
aF0.24691808006482863
aa(lp658
F0.27201052328095715
aF0.2492075705910215
aa(lp659
F0.2725605361775728
aF0.2508544352461958
aa(lp660
F0.27523612097117706
aF0.2513916738693428
aa(lp661
F0.2748713570797763
aF0.2549023469336125
aa(lp662
F0.27598122245640927
aF0.2814396877589936
aa(lp663
F0.27973563218390807
aF0.28224439393226497
aa(lp664
F0.27710774299835256
aF0.27030420409428124
aa(lp665
F0.2728877824019025
aF0.2596347419708134
aa(lp666
F0.27048466448699987
aF0.26363234459626456
aa(lp667
F0.2724632280005668
aF0.25605004966756
aa(lp668
F0.2740450614474283
aF0.2647370848017134
aa(lp669
F0.2733932567049809
aF0.2648026707964985
aa(lp670
F0.2720333632555356
aF0.2654030409346558
aa(lp671
F0.2738598666873353
aF0.26949166770841226
aa(lp672
F0.2776540928527795
aF0.2692054796497561
aa(lp673
F0.278811973955852
aF0.2742746965667904
aa(lp674
F0.27505041635124905
aF0.2689528807450803
aa(lp675
F0.27432893511331885
aF0.2740782596374883
aa(lp676
F0.272046034214619
aF0.27437685060468947
aa(lp677
F0.27462829600226824
aF0.2661020000055162
aa(lp678
F0.27443595505617974
aF0.2733357381267714
aa(lp679
F0.2790483895131086
aF0.2745114715321112
aa(lp680
F0.2789353859496964
aF0.2723510574058352
aa(lp681
F0.27320068085106386
aF0.28997652224281695
aa(lp682
F0.27266983796640404
aF0.2765593149216925
aa(lp683
F0.27646442234123947
aF0.280381670507807
aa(lp684
F0.2743608600810221
aF0.2832449501199196
aa(lp685
F0.27875093283582086
aF0.2838198811310947
aa(lp686
F0.2763442396313364
aF0.2843257701642663
aa(lp687
F0.2758363073293025
aF0.28191154397875595
aa(lp688
F0.28235396434265836
aF0.283060718216118
aa(lp689
F0.2899018118059614
aF0.28749551661932776
aa(lp690
F0.27952122814749525
aF0.28462798169528886
aa(lp691
F0.28261340607950114
aF0.29375731432675384
aa(lp692
F0.28003847292098255
aF0.2867581725401725
aa(lp693
F0.2832727412179782
aF0.29202741096540435
aa(lp694
F0.28289563253012046
aF0.29245892176134825
aa(lp695
F0.2770441109595271
aF0.29334416061714835
aa(lp696
F0.27839621489621486
aF0.2955096266851777
aa(lp697
F0.2808784651298512
aF0.29148098065563555
aa(lp698
F0.28238082741586906
aF0.2988022457660653
aa(lp699
F0.284560153256705
aF0.30087872880642097
aa(lp700
F0.282644172705314
aF0.29865509154294456
aa(lp701
F0.28074431287005297
aF0.3034962129720273
aa(lp702
F0.27996752537080405
aF0.30360755894891306
aa(lp703
F0.2808905648267009
aF0.30936428347256717
aa(lp704
F0.2809674267100977
aF0.30649725049485743
aa(lp705
F0.2815104199557941
aF0.3107457066080191
aa(lp706
F0.2810901571546733
aF0.31395781127008676
aa(lp707
F0.2802232115907033
aF0.30696793978501685
aa(lp708
F0.2807333645735708
aF0.31076288596624224
aa(lp709
F0.28262369172216933
aF0.3149244069311882
aa(lp710
F0.28118202465931214
aF0.3169221530696984
aa(lp711
F0.27836988068365043
aF0.3166981878981672
aa(lp712
F0.2830703575547866
aF0.3220020003452189
aa(lp713
F0.27889588497768963
aF0.3219088697099535
aa(lp714
F0.281091059056417
aF0.3256236962736108
aa(lp715
F0.2816527940929686
aF0.32696267150609903
aa(lp716
F0.27883056534138567
aF0.3282454646228473
aa(lp717
F0.2828808323849781
aF0.3259403106735552
aa(lp718
F0.2832219772765813
aF0.3339014284382716
aa(lp719
F0.28382055630936226
aF0.33493015593574765
aa(lp720
F0.2823530720520281
aF0.3370810106983577
aa(lp721
F0.28371704290884026
aF0.33853945459969326
aa(lp722
F0.2816901213171577
aF0.3395059618538737
aa(lp723
F0.2824160558464223
aF0.3430707200566356
aa(lp724
F0.28339874191857417
aF0.3435462830490371
aa(lp725
F0.28526711599858107
aF0.3483452944404829
aa(lp726
F0.28496528395940895
aF0.3504964144014274
aaa(lp727
F0.0
aF0.1
aF0.2
aF0.3
aF0.4
aF0.5
aF0.6
aF0.7
aF0.8
aF0.9
aF1.0
aF1.1
aF1.2
aF1.3
aF1.4
aF1.5
aF1.6
aF1.7
aF1.8
aF1.9
aF2.0
aF2.1
aF2.2
aF2.3
aF2.4
aF2.5
aF2.6
aF2.7
aF2.8
aF2.9
aF3.0
aF3.1
aF3.2
aF3.3
aF3.4
aF3.5
aF3.6
aF3.7
aF3.8
aF3.9
aF4.0
aF4.1
aF4.2
aF4.3
aF4.4
aF4.5
aF4.6
aF4.7
aF4.8
aF4.9
aF5.0
aF5.1
aF5.2
aF5.3
aF5.4
aF5.5
aF5.6
aF5.7
aF5.8
aF5.9
aF6.0
aF6.1
aF6.2
aF6.3
aF6.4
aF6.5
aF6.6
aF6.7
aF6.8
aF6.9
aF7.0
aF7.1
aF7.2
aF7.3
aF7.4
aF7.5
aF7.6
aF7.7
aF7.8
aF7.9
aF8.0
aF8.1
aF8.2
aF8.3
aF8.4
aF8.5
aF8.6
aF8.7
aF8.8
aF8.9
aF9.0
aF9.1
aF9.2
aF9.3
aF9.4
aF9.5
aF9.6
aF9.7
aF9.8
aF9.9
aF10.0
aF10.1
aF10.2
aF10.3
aF10.4
aF10.5
aF10.6
aF10.7
aF10.8
aF10.9
aF11.0
aF11.1
aF11.2
aF11.3
aF11.4
aF11.5
aF11.6
aF11.7
aF11.8
aF11.9
aF12.0
aF12.1
aF12.2
aF12.3
aF12.4
aF12.5
aF12.6
aF12.7
aF12.8
aF12.9
aF13.0
aF13.1
aF13.2
aF13.3
aF13.4
aF13.5
aF13.6
aF13.7
aF13.8
aF13.9
aF14.0
aF14.1
aF14.2
aF14.3
aF14.4
aF14.5
aF14.6
aF14.7
aF14.8
aF14.9
aF15.0
aF15.1
aF15.2
aF15.3
aF15.4
aF15.5
aF15.6
aF15.7
aF15.8
aF15.9
aF16.0
aF16.1
aF16.2
aF16.3
aF16.4
aF16.5
aF16.6
aF16.7
aF16.8
aF16.9
aF17.0
aF17.1
aF17.2
aF17.3
aF17.4
aF17.5
aF17.6
aF17.7
aF17.8
aF17.9
aF18.0
aF18.1
aF18.2
aF18.3
aF18.4
aF18.5
aF18.6
aF18.7
aF18.8
aF18.9
aF19.0
aF19.1
aF19.2
aF19.3
aF19.4
aF19.5
aF19.6
aF19.7
aF19.8
aF19.9
aF20.0
aF20.1
aF20.2
aF20.3
aF20.4
aF20.5
aF20.6
aF20.7
aF20.8
aF20.9
aF21.0
aF21.1
aF21.2
aF21.3
aF21.4
aF21.5
aF21.6
aF21.7
aF21.8
aF21.9
aF22.0
aF22.1
aF22.2
aF22.3
aF22.4
aF22.5
aF22.6
aF22.7
aF22.8
aF22.9
aF23.0
aF23.1
aF23.2
aF23.3
aF23.4
aF23.5
aF23.6
aF23.7
aF23.8
aF23.9
aa(lp728
(lp729
F0.2774173179118474
aF0.1495790004848606
aa(lp730
F0.27340489864864864
aF0.14844676501667547
aa(lp731
F0.27541405981436917
aF0.14907147807351587
aa(lp732
F0.27768000000000004
aF0.14933932061754476
aa(lp733
F0.2717577532736044
aF0.14656072253678806
aa(lp734
F0.2738222109875295
aF0.14805862140980658
aa(lp735
F0.2731468033356497
aF0.14774317006485763
aa(lp736
F0.27411519140827995
aF0.15032446220042764
aa(lp737
F0.27725150214592276
aF0.15131191661865165
aa(lp738
F0.28015750473892814
aF0.1499254899629096
aa(lp739
F0.2736082693250531
aF0.15001549665051642
aa(lp740
F0.2747024738502407
aF0.14993554844333698
aa(lp741
F0.27994029084687766
aF0.1520310938070655
aa(lp742
F0.2715012289038178
aF0.14628718546990999
aa(lp743
F0.2774355282316777
aF0.1496895414788735
aa(lp744
F0.27669419208306295
aF0.15026331399482556
aa(lp745
F0.27690696941028065
aF0.1519557167002048
aa(lp746
F0.2763997772828508
aF0.14822815970155756
aa(lp747
F0.27732850393700786
aF0.152253045548669
aa(lp748
F0.2747746016869728
aF0.15254099909626193
aa(lp749
F0.2720974951252437
aF0.14887362100025733
aa(lp750
F0.27487713310580203
aF0.1508267861630352
aa(lp751
F0.2773042952208107
aF0.15387771310731896
aa(lp752
F0.2781933373897171
aF0.15322517200048255
aa(lp753
F0.277374863217133
aF0.1522611689932066
aa(lp754
F0.27960386765372414
aF0.15371532627664117
aa(lp755
F0.27690042406156745
aF0.15456578222558534
aa(lp756
F0.28268495967104224
aF0.15331474081126725
aa(lp757
F0.2786397766056469
aF0.15327760582373529
aa(lp758
F0.28350816812053925
aF0.1569168570816417
aa(lp759
F0.2779815259837789
aF0.1541790388294571
aa(lp760
F0.27927296875
aF0.1562838497160674
aa(lp761
F0.2786881195668751
aF0.15704235797118504
aa(lp762
F0.2799776911076443
aF0.15604886883033794
aa(lp763
F0.28695015906680804
aF0.1612349408529945
aa(lp764
F0.28100047969299646
aF0.15741233449480768
aa(lp765
F0.2815754881727258
aF0.15765862726955499
aa(lp766
F0.27741653212786566
aF0.15552814410403878
aa(lp767
F0.2765824561403509
aF0.15517539862324659
aa(lp768
F0.2832967589466577
aF0.1610873760245174
aa(lp769
F0.2830444024563061
aF0.1575054122197237
aa(lp770
F0.28753532387012565
aF0.16432852957885308
aa(lp771
F0.28341869376874373
aF0.1630773837729913
aa(lp772
F0.28008908534512067
aF0.16076055173432957
aa(lp773
F0.2800617327877602
aF0.1634713974669829
aa(lp774
F0.2810788737320742
aF0.16231247460891354
aa(lp775
F0.2787421146953405
aF0.16322363326047287
aa(lp776
F0.27723530502503246
aF0.16217277965045643
aa(lp777
F0.2767708020989505
aF0.16306933840150398
aa(lp778
F0.2781005005775895
aF0.16245779527987528
aa(lp779
F0.27799074759437453
aF0.16564363806683158
aa(lp780
F0.27763957597173144
aF0.16606385899348558
aa(lp781
F0.27660970021004394
aF0.1652087656701226
aa(lp782
F0.27351440809968847
aF0.1664555222361855
aa(lp783
F0.27780283353010626
aF0.16333749135850636
aa(lp784
F0.27479246778989097
aF0.16806459977466381
aa(lp785
F0.27737186776163403
aF0.17130373469402432
aa(lp786
F0.2736972169910023
aF0.16986767242471648
aa(lp787
F0.27506288343558283
aF0.17394883193763777
aa(lp788
F0.2667159541648303
aF0.1697041773050397
aa(lp789
F0.27229563365282217
aF0.1709521642157257
aa(lp790
F0.27495671981776765
aF0.175476678383084
aa(lp791
F0.2745314031180401
aF0.17353580193675855
aa(lp792
F0.274581550494594
aF0.17762010956723326
aa(lp793
F0.27304252673464313
aF0.18116294562532337
aa(lp794
F0.2707464251668255
aF0.1771555993014513
aa(lp795
F0.27653372063652437
aF0.18334644793880633
aa(lp796
F0.2712165991902834
aF0.181124494920932
aa(lp797
F0.26868176068808497
aF0.18147369461099752
aa(lp798
F0.26692894736842104
aF0.18093039416431156
aa(lp799
F0.2720723150357995
aF0.18186157546428522
aa(lp800
F0.2721691529709229
aF0.18382587249968024
aa(lp801
F0.27494533762057877
aF0.1885690126732707
aa(lp802
F0.2765391188251001
aF0.18985655890476688
aa(lp803
F0.26618420318169134
aF0.19075706120693703
aa(lp804
F0.26896466431095406
aF0.18928733104450848
aa(lp805
F0.2732655629139073
aF0.2007446117456949
aa(lp806
F0.27126093402520385
aF0.20693042210619114
aa(lp807
F0.27552829486224867
aF0.20743836162392446
aa(lp808
F0.27244324772162387
aF0.21492199234896794
aa(lp809
F0.26765663524292965
aF0.2073677140223425
aa(lp810
F0.2709614485981308
aF0.21480831834016711
aa(lp811
F0.2728919434898816
aF0.214526041823187
aa(lp812
F0.26824111282843893
aF0.21473681408141934
aa(lp813
F0.26652185163887293
aF0.20091723366264627
aa(lp814
F0.27310069031183054
aF0.19566269713341722
aa(lp815
F0.27297951628825273
aF0.1970322625630292
aa(lp816
F0.2706444726810674
aF0.20016920626834397
aa(lp817
F0.2793353751914242
aF0.21391543288820178
aa(lp818
F0.2813095470043838
aF0.2040486290381898
aa(lp819
F0.2733860916685482
aF0.19566941579166802
aa(lp820
F0.2817905971359092
aF0.209355694164572
aa(lp821
F0.27705849500293944
aF0.21304648661048087
aa(lp822
F0.27848805662046594
aF0.2127013356578819
aa(lp823
F0.2720594972955775
aF0.21918330550296225
aa(lp824
F0.27442483454144345
aF0.21954754238642413
aa(lp825
F0.2718324340527578
aF0.21860231726272786
aa(lp826
F0.2858625634896923
aF0.22489369792718866
aa(lp827
F0.2781301312482547
aF0.220721109549569
aa(lp828
F0.2722810695837132
aF0.22257212690488687
aa(lp829
F0.2732986943778311
aF0.21743957212893103
aa(lp830
F0.27423473121305936
aF0.2212971575400261
aa(lp831
F0.2818558662438743
aF0.22683152542472076
aa(lp832
F0.28379127988748243
aF0.2253187032724224
aa(lp833
F0.27666741196198996
aF0.2250395002883478
aa(lp834
F0.2774158686730506
aF0.22431855810802434
aa(lp835
F0.27918146824305745
aF0.22729922427771196
aa(lp836
F0.2746821999458141
aF0.2292757030896332
aa(lp837
F0.277762360446571
aF0.22573521555856146
aa(lp838
F0.27944857296715137
aF0.23112933705845462
aa(lp839
F0.2755012230919765
aF0.223916407115586
aa(lp840
F0.27975878634639695
aF0.2274397316503322
aa(lp841
F0.28088438880706923
aF0.23027474625831848
aa(lp842
F0.27549159769250064
aF0.22964819648027707
aa(lp843
F0.2809585900912004
aF0.2318419910996818
aa(lp844
F0.27889424007744434
aF0.22882190613215658
aa(lp845
F0.27476317109884596
aF0.23318040061397458
aa(lp846
F0.2784806603773585
aF0.23034026156266413
aa(lp847
F0.27881100874084574
aF0.23334190658832027
aa(lp848
F0.27735014137606034
aF0.23511086021206493
aa(lp849
F0.2779435810091548
aF0.22592645343421927
aa(lp850
F0.27432423580786025
aF0.22894653464532486
aa(lp851
F0.27527037370553803
aF0.23467908508177907
aa(lp852
F0.279171141672124
aF0.23246878168819032
aa(lp853
F0.2838004981884058
aF0.23735291290318075
aa(lp854
F0.27805054302422727
aF0.23367340731121833
aa(lp855
F0.27738863976083705
aF0.23480865298989956
aa(lp856
F0.2829329333619027
aF0.23745449899516283
aa(lp857
F0.2773647785787848
aF0.2337588422460446
aa(lp858
F0.27808089289371285
aF0.23677614417696807
aa(lp859
F0.2814063192904656
aF0.22965617214067308
aa(lp860
F0.27853360948973827
aF0.23104271123826614
aa(lp861
F0.2843666604373014
aF0.23452134136083727
aa(lp862
F0.2848639832125143
aF0.23513354100696493
aa(lp863
F0.2774637325273895
aF0.2343849424640014
aa(lp864
F0.2796429711044141
aF0.23465728629495572
aa(lp865
F0.2811567674586033
aF0.23430956177474224
aa(lp866
F0.2793708961845608
aF0.23446495288911148
aa(lp867
F0.28062469817178337
aF0.23460775472196319
aa(lp868
F0.2816180507892931
aF0.23636808134419254
aa(lp869
F0.27650880913539966
aF0.22923666346102692
aa(lp870
F0.27883168805528136
aF0.2322528167247153
aa(lp871
F0.2826458266194006
aF0.23261475468639073
aa(lp872
F0.278354870288791
aF0.2331883333661189
aa(lp873
F0.28256030664395226
aF0.2383175280797818
aa(lp874
F0.2791461513478402
aF0.23504926498485015
aa(lp875
F0.28128237205523965
aF0.23575110442263336
aa(lp876
F0.2791817745035234
aF0.23578195438872623
aa(lp877
F0.28198970704671417
aF0.2353657988873193
aa(lp878
F0.28242622687047464
aF0.24097688214540308
aa(lp879
F0.28809035200228017
aF0.2346674078167918
aa(lp880
F0.287401317633866
aF0.23307280109035713
aa(lp881
F0.2909383351893096
aF0.23533645148259663
aa(lp882
F0.2877800489419894
aF0.23653374187302506
aa(lp883
F0.2856032710956723
aF0.23794393841719036
aa(lp884
F0.2842059282371295
aF0.23748690833412112
aa(lp885
F0.2837096402877698
aF0.2386303756618818
aa(lp886
F0.28562343457607603
aF0.24057560034121317
aa(lp887
F0.28321196207148064
aF0.24178746663617368
aa(lp888
F0.28398088986141506
aF0.24407951237164816
aa(lp889
F0.305442509135201
aF0.2404662000041089
aa(lp890
F0.3006040729635182
aF0.23912394263420136
aa(lp891
F0.293552738736372
aF0.2417563129033291
aa(lp892
F0.2922277366675173
aF0.23939932660073443
aa(lp893
F0.29282890936597444
aF0.24537669582912322
aa(lp894
F0.2904802053776517
aF0.24387275407975428
aa(lp895
F0.2904971852258684
aF0.2458210342293396
aa(lp896
F0.2884861016020813
aF0.24585120310875772
aa(lp897
F0.2860183625569515
aF0.24791912688744594
aa(lp898
F0.28687462558836113
aF0.25050706203749046
aa(lp899
F0.2896827277514481
aF0.24675318668276913
aa(lp900
F0.29020417697169554
aF0.2509477833483181
aa(lp901
F0.2889901842140648
aF0.25061177654859385
aa(lp902
F0.2850136677469353
aF0.2518759648024885
aa(lp903
F0.28571833968657345
aF0.255031015464525
aa(lp904
F0.28165178571428573
aF0.2524621855558601
aa(lp905
F0.2844116121596312
aF0.2572718465541915
aa(lp906
F0.28363084448280823
aF0.2571966195630651
aa(lp907
F0.28345846372688477
aF0.2567457337492966
aa(lp908
F0.2836902361751152
aF0.2592415650852307
aa(lp909
F0.28078926719910324
aF0.25638033573109514
aa(lp910
F0.2790183023490416
aF0.26059093119504645
aa(lp911
F0.2829699644128114
aF0.2620663857252968
aa(lp912
F0.279783931133429
aF0.2626627599057029
aa(lp913
F0.28382902847079544
aF0.26761336189743135
aa(lp914
F0.28071001002434487
aF0.26528788883065546
aa(lp915
F0.2831238823190078
aF0.2676821593554512
aa(lp916
F0.2789751108568159
aF0.26700550691927716
aa(lp917
F0.28368763526186697
aF0.26874546842861397
aa(lp918
F0.28269599764567394
aF0.2723854332970583
aa(lp919
F0.2802428710529976
aF0.2684503178805426
aa(lp920
F0.284908111174135
aF0.2718422723312973
aa(lp921
F0.2853123493548844
aF0.2725209314826947
aa(lp922
F0.2785466724916266
aF0.27386389843537245
aa(lp923
F0.2867436950146628
aF0.2791106631405599
aa(lp924
F0.28610768300060496
aF0.28123414870329916
aa(lp925
F0.286256866656437
aF0.2837903642511624
aa(lp926
F0.2818207189443349
aF0.282184569176953
aa(lp927
F0.2850701145958987
aF0.28346984890820603
aa(lp928
F0.2832646511627907
aF0.2855922306291986
aa(lp929
F0.28167044801838026
aF0.27979737099869256
aa(lp930
F0.2769913664781185
aF0.28272948732703246
aa(lp931
F0.28309591078066915
aF0.28611292120243825
aa(lp932
F0.28002763932940644
aF0.28810670332151583
aa(lp933
F0.28370242321345884
aF0.2928361470094873
aa(lp934
F0.2837881888612776
aF0.287864398125975
aa(lp935
F0.27898142688679245
aF0.2880927628744057
aa(lp936
F0.28258226873941816
aF0.29425610899039095
aa(lp937
F0.2809475519175383
aF0.29398388431142575
aa(lp938
F0.2802598852535277
aF0.29679472577555654
aa(lp939
F0.2823413364188603
aF0.29109692344774496
aa(lp940
F0.28031551697883356
aF0.2964123206295926
aa(lp941
F0.2805651378942557
aF0.297827755037645
aa(lp942
F0.2837949691504509
aF0.30493234523560975
aa(lp943
F0.2829639844256976
aF0.3078420570872699
aa(lp944
F0.2848691148775894
aF0.3072168734313849
aa(lp945
F0.2827885167464115
aF0.3098347208542042
aa(lp946
F0.28614414125200643
aF0.31328886728072763
aa(lp947
F0.2807697648729683
aF0.30922995786019514
aa(lp948
F0.28566135130692094
aF0.31719481584285353
aa(lp949
F0.2822649087843017
aF0.3094858771620691
aa(lp950
F0.2850045705279748
aF0.31315940287998073
aa(lp951
F0.2834743715311786
aF0.3166773931670437
aa(lp952
F0.2859247780197688
aF0.3230912227343816
aa(lp953
F0.28150561241333777
aF0.3212939607236446
aa(lp954
F0.2821768451992162
aF0.3216234900588117
aa(lp955
F0.2841515661839003
aF0.32608715761154583
aa(lp956
F0.2839932502596054
aF0.3323509021549242
aa(lp957
F0.28554079334834576
aF0.33250223443597265
aa(lp958
F0.2874911080711354
aF0.33259840125512524
aa(lp959
F0.29466100903145437
aF0.3247809293688751
aa(lp960
F0.2952892642520708
aF0.32986884338622635
aa(lp961
F0.29363102362204724
aF0.3264864656732546
aa(lp962
F0.2919384003974168
aF0.33460900911948926
aa(lp963
F0.28989570858283437
aF0.3351767031392251
aa(lp964
F0.2888821525885559
aF0.33832653340199886
aa(lp965
F0.2895669808145406
aF0.33931306161984587
aa(lp966
F0.29104785591766724
aF0.3442114141391017
aa(lp967
F0.29575334706488154
aF0.34540955017096775
aa(lp968
F0.2926650959860384
aF0.34778271564485297
aaa(lp969
F0.0
aF0.1
aF0.2
aF0.3
aF0.4
aF0.5
aF0.6
aF0.7
aF0.8
aF0.9
aF1.0
aF1.1
aF1.2
aF1.3
aF1.4
aF1.5
aF1.6
aF1.7
aF1.8
aF1.9
aF2.0
aF2.1
aF2.2
aF2.3
aF2.4
aF2.5
aF2.6
aF2.7
aF2.8
aF2.9
aF3.0
aF3.1
aF3.2
aF3.3
aF3.4
aF3.5
aF3.6
aF3.7
aF3.8
aF3.9
aF4.0
aF4.1
aF4.2
aF4.3
aF4.4
aF4.5
aF4.6
aF4.7
aF4.8
aF4.9
aF5.0
aF5.1
aF5.2
aF5.3
aF5.4
aF5.5
aF5.6
aF5.7
aF5.8
aF5.9
aF6.0
aF6.1
aF6.2
aF6.3
aF6.4
aF6.5
aF6.6
aF6.7
aF6.8
aF6.9
aF7.0
aF7.1
aF7.2
aF7.3
aF7.4
aF7.5
aF7.6
aF7.7
aF7.8
aF7.9
aF8.0
aF8.1
aF8.2
aF8.3
aF8.4
aF8.5
aF8.6
aF8.7
aF8.8
aF8.9
aF9.0
aF9.1
aF9.2
aF9.3
aF9.4
aF9.5
aF9.6
aF9.7
aF9.8
aF9.9
aF10.0
aF10.1
aF10.2
aF10.3
aF10.4
aF10.5
aF10.6
aF10.7
aF10.8
aF10.9
aF11.0
aF11.1
aF11.2
aF11.3
aF11.4
aF11.5
aF11.6
aF11.7
aF11.8
aF11.9
aF12.0
aF12.1
aF12.2
aF12.3
aF12.4
aF12.5
aF12.6
aF12.7
aF12.8
aF12.9
aF13.0
aF13.1
aF13.2
aF13.3
aF13.4
aF13.5
aF13.6
aF13.7
aF13.8
aF13.9
aF14.0
aF14.1
aF14.2
aF14.3
aF14.4
aF14.5
aF14.6
aF14.7
aF14.8
aF14.9
aF15.0
aF15.1
aF15.2
aF15.3
aF15.4
aF15.5
aF15.6
aF15.7
aF15.8
aF15.9
aF16.0
aF16.1
aF16.2
aF16.3
aF16.4
aF16.5
aF16.6
aF16.7
aF16.8
aF16.9
aF17.0
aF17.1
aF17.2
aF17.3
aF17.4
aF17.5
aF17.6
aF17.7
aF17.8
aF17.9
aF18.0
aF18.1
aF18.2
aF18.3
aF18.4
aF18.5
aF18.6
aF18.7
aF18.8
aF18.9
aF19.0
aF19.1
aF19.2
aF19.3
aF19.4
aF19.5
aF19.6
aF19.7
aF19.8
aF19.9
aF20.0
aF20.1
aF20.2
aF20.3
aF20.4
aF20.5
aF20.6
aF20.7
aF20.8
aF20.9
aF21.0
aF21.1
aF21.2
aF21.3
aF21.4
aF21.5
aF21.6
aF21.7
aF21.8
aF21.9
aF22.0
aF22.1
aF22.2
aF22.3
aF22.4
aF22.5
aF22.6
aF22.7
aF22.8
aF22.9
aF23.0
aF23.1
aF23.2
aF23.3
aF23.4
aF23.5
aF23.6
aF23.7
aF23.8
aF23.9
aa(lp970
(lp971
F0.31287747380675207
aF0.16945086015629057
aa(lp972
F0.30583505313414444
aF0.1601192794864613
aa(lp973
F0.295945696400626
aF0.15589358201927056
aa(lp974
F0.29705995547073794
aF0.15894969928446698
aa(lp975
F0.2895977598418712
aF0.1561954114090039
aa(lp976
F0.2851250817527796
aF0.153360444343384
aa(lp977
F0.2859927093930146
aF0.15024403002447803
aa(lp978
F0.28827374670184697
aF0.15416179833555482
aa(lp979
F0.288672256097561
aF0.15351718296094327
aa(lp980
F0.28848364129513476
aF0.15523562264192764
aa(lp981
F0.2910425910931174
aF0.15282585126898676
aa(lp982
F0.2874999180999181
aF0.15037213027647717
aa(lp983
F0.28397317236753855
aF0.15050607998334656
aa(lp984
F0.2830353039134055
aF0.1533806615397526
aa(lp985
F0.29036782195039074
aF0.1535670223696136
aa(lp986
F0.2865808114399734
aF0.1528895845046299
aa(lp987
F0.2895441586105194
aF0.15704417155880807
aa(lp988
F0.28373834239578183
aF0.15178103725724126
aa(lp989
F0.28320267591674925
aF0.15498568029473977
aa(lp990
F0.2876449139546771
aF0.15776114887876863
aa(lp991
F0.2873813953488372
aF0.15512915905796743
aa(lp992
F0.28376192876344086
aF0.1517933881158678
aa(lp993
F0.2870011705685619
aF0.15699950676111157
aa(lp994
F0.2864286186384666
aF0.15403703040702285
aa(lp995
F0.28473774878742264
aF0.15513515233007052
aa(lp996
F0.28983307185440854
aF0.1556140080530873
aa(lp997
F0.28496255616575134
aF0.15567554270467263
aa(lp998
F0.28816366366366364
aF0.15436656681667468
aa(lp999
F0.28984496124031006
aF0.1606655081846092
aa(lp1000
F0.2820940821830874
aF0.1566705196617407
aa(lp1001
F0.2909606299212598
aF0.15829393047470977
aa(lp1002
F0.2878047475760615
aF0.15915549887284064
aa(lp1003
F0.2910926892950392
aF0.1620452504331288
aa(lp1004
F0.2858516919889503
aF0.15903712799876668
aa(lp1005
F0.28927263374485596
aF0.16081778367436475
aa(lp1006
F0.28974108658743636
aF0.16033794552924863
aa(lp1007
F0.29077775873886225
aF0.16155364511217016
aa(lp1008
F0.28973996818101466
aF0.16213787552961778
aa(lp1009
F0.28321953763253954
aF0.15815525094427482
aa(lp1010
F0.29048676207513413
aF0.16126813188997965
aa(lp1011
F0.2901319120586276
aF0.1597741219219296
aa(lp1012
F0.29159300476947536
aF0.16212035853249507
aa(lp1013
F0.2905335230304108
aF0.16527699840746354
aa(lp1014
F0.2895239720184269
aF0.16183328646430598
aa(lp1015
F0.2878719523207513
aF0.16277359816120227
aa(lp1016
F0.29491251992208256
aF0.16481213383389248
aa(lp1017
F0.2956508239375542
aF0.16380282367263205
aa(lp1018
F0.290915998605786
aF0.16503832859704326
aa(lp1019
F0.29246640755136033
aF0.16434949500195983
aa(lp1020
F0.29048691999236204
aF0.16516640817671152
aa(lp1021
F0.3345722543352601
aF0.18411008754234723
aa(lp1022
F0.3245132207709462
aF0.17694561025579741
aa(lp1023
F0.31150898502495844
aF0.17416968560399085
aa(lp1024
F0.30344313172280024
aF0.17004317815079403
aa(lp1025
F0.30450722433460076
aF0.1740598284174053
aa(lp1026
F0.2966370936902486
aF0.17172663324609894
aa(lp1027
F0.30134675044178283
aF0.17469334125752237
aa(lp1028
F0.30113476020610386
aF0.17294244094980527
aa(lp1029
F0.3008310683671336
aF0.17437957985917182
aa(lp1030
F0.2934054669703873
aF0.17422148652255623
aa(lp1031
F0.3190775732531931
aF0.18401877368012756
aa(lp1032
F0.3090947877259353
aF0.18274036799791493
aa(lp1033
F0.30381313775510205
aF0.17981764497694194
aa(lp1034
F0.296688087431694
aF0.1788363493696777
aa(lp1035
F0.29490766164747567
aF0.1785291378018619
aa(lp1036
F0.295036489814193
aF0.18176442104729015
aa(lp1037
F0.2960543503615582
aF0.1832710868060428
aa(lp1038
F0.29498482372169044
aF0.18423808288422164
aa(lp1039
F0.28945734265734263
aF0.18347872035715695
aa(lp1040
F0.2913439060939061
aF0.18574233147037897
aa(lp1041
F0.2947795312137387
aF0.1861056489489719
aa(lp1042
F0.2957916357337293
aF0.18806006950414253
aa(lp1043
F0.2929530332681018
aF0.18871803294465397
aa(lp1044
F0.29441602316602317
aF0.18796437692813134
aa(lp1045
F0.28771473518615626
aF0.1908604748450715
aa(lp1046
F0.28797083961789843
aF0.19048250514616238
aa(lp1047
F0.28499254115226336
aF0.19084832402876364
aa(lp1048
F0.2915317640385706
aF0.19810846512781485
aa(lp1049
F0.29110122038765257
aF0.20739680997656704
aa(lp1050
F0.2914804177545692
aF0.21379355122523472
aa(lp1051
F0.31682747997535426
aF0.21644430662458194
aa(lp1052
F0.3159310344827586
aF0.21276293261613227
aa(lp1053
F0.3165509838998211
aF0.23193507267421132
aa(lp1054
F0.3105830115830116
aF0.23636281611358265
aa(lp1055
F0.3141736736736737
aF0.24330985161611893
aa(lp1056
F0.31045570264765787
aF0.24296326851028613
aa(lp1057
F0.3116134101623887
aF0.2472745661344299
aa(lp1058
F0.30851200873362444
aF0.2502887766740747
aa(lp1059
F0.29896750308515013
aF0.231846022083325
aa(lp1060
F0.29411260371394704
aF0.22780780411519524
aa(lp1061
F0.2893960432997387
aF0.22341768971356116
aa(lp1062
F0.29117106254709874
aF0.22670774065950064
aa(lp1063
F0.29987654320987656
aF0.23154831079444024
aa(lp1064
F0.2938909226746358
aF0.23227343956742702
aa(lp1065
F0.29474152542372883
aF0.23604632604619638
aa(lp1066
F0.29548134044173646
aF0.23761180152323413
aa(lp1067
F0.29100804597701146
aF0.2378318966215577
aa(lp1068
F0.2862155205532078
aF0.2395068595624501
aa(lp1069
F0.29082682445759367
aF0.24208313666505463
aa(lp1070
F0.28910492178557806
aF0.24180752561744728
aa(lp1071
F0.2887822096717261
aF0.23840549850473408
aa(lp1072
F0.28548882582476054
aF0.23800738667111127
aa(lp1073
F0.2874396273737012
aF0.2408585759567305
aa(lp1074
F0.28969967355821546
aF0.24488714065482017
aa(lp1075
F0.2924411342426418
aF0.24701495084532593
aa(lp1076
F0.28948212389380534
aF0.24696066177782736
aa(lp1077
F0.2853589265747298
aF0.2518400571294895
aa(lp1078
F0.2844594886568239
aF0.24821090932675835
aa(lp1079
F0.29300717360114775
aF0.25008829288130546
aa(lp1080
F0.283697967764541
aF0.24791736214640622
aa(lp1081
F0.2906418309388573
aF0.24891934487888903
aa(lp1082
F0.2828677367576244
aF0.2439533826217543
aa(lp1083
F0.2902091242091242
aF0.25118431980318534
aa(lp1084
F0.2909224449556359
aF0.24977974366924136
aa(lp1085
F0.2891576819407008
aF0.25612529861267974
aa(lp1086
F0.29080198943114705
aF0.2507454463726868
aa(lp1087
F0.28935390946502054
aF0.2511456386903648
aa(lp1088
F0.28819774011299437
aF0.25979402985253314
aa(lp1089
F0.28060824068018314
aF0.25665911268021924
aa(lp1090
F0.28583557361675527
aF0.2564724910864532
aa(lp1091
F0.28869825072886296
aF0.253021526517334
aa(lp1092
F0.2846362793572311
aF0.25871676964124746
aa(lp1093
F0.2852014218009479
aF0.25497877153942766
aa(lp1094
F0.2872884559464961
aF0.25414271700838953
aa(lp1095
F0.29873158620689655
aF0.25385018321233666
aa(lp1096
F0.29331748176168604
aF0.2526391936162364
aa(lp1097
F0.29129300841311284
aF0.2580566936305663
aa(lp1098
F0.28642432814710045
aF0.25697895041933805
aa(lp1099
F0.2892326244813278
aF0.25383769048186555
aa(lp1100
F0.28602898158179846
aF0.25779701821518863
aa(lp1101
F0.2853885814889336
aF0.2525603078320628
aa(lp1102
F0.28474861660079054
aF0.2560715566280771
aa(lp1103
F0.2842153110047847
aF0.25961432217248126
aa(lp1104
F0.2880218318695107
aF0.25405532410477205
aa(lp1105
F0.2845801331285202
aF0.25938536896551306
aa(lp1106
F0.28552478134110787
aF0.2562275181601854
aa(lp1107
F0.28470985120574654
aF0.262369173059558
aa(lp1108
F0.2809542719614922
aF0.2549087837608549
aa(lp1109
F0.28218395252837974
aF0.26372574896824885
aa(lp1110
F0.2875613820142122
aF0.26287142484203513
aa(lp1111
F0.28217865786578655
aF0.2523711335019258
aa(lp1112
F0.2850158003205862
aF0.258153211489478
aa(lp1113
F0.28884340148698884
aF0.2626702758615733
aa(lp1114
F0.2837429746401645
aF0.26095777737728115
aa(lp1115
F0.2831630841121496
aF0.2627350820483095
aa(lp1116
F0.2825411111111111
aF0.260430562924191
aa(lp1117
F0.28569497554468654
aF0.26235518089002374
aa(lp1118
F0.28603338391502275
aF0.262452959010941
aa(lp1119
F0.2827253380625139
aF0.2640892951407745
aa(lp1120
F0.2870333333333333
aF0.26255413613886236
aa(lp1121
F0.2826389583333333
aF0.2588455098738006
aa(lp1122
F0.285425
aF0.2626330472521127
aa(lp1123
F0.28993516461320945
aF0.26166376612476194
aa(lp1124
F0.2808083209509658
aF0.2651218339145619
aa(lp1125
F0.28516343315056936
aF0.26488375323759683
aa(lp1126
F0.28898531844499586
aF0.26594531396935045
aa(lp1127
F0.2867601643598616
aF0.2707526706372599
aa(lp1128
F0.28337983706720976
aF0.2641928199633004
aa(lp1129
F0.28417484662576686
aF0.26701667472831897
aa(lp1130
F0.28672563780844834
aF0.2720916825521054
aa(lp1131
F0.2930950764006791
aF0.26607515184712494
aa(lp1132
F0.28506018518518517
aF0.265778035140951
aa(lp1133
F0.28771690879741724
aF0.27173100302812075
aa(lp1134
F0.2830566110151602
aF0.26898732972170986
aa(lp1135
F0.2895618000407249
aF0.27613331331024144
aa(lp1136
F0.2844473017728424
aF0.2716273677818998
aa(lp1137
F0.28749293177627533
aF0.27942711886171295
aa(lp1138
F0.28899089253187615
aF0.2790850785891756
aa(lp1139
F0.28652374245472834
aF0.2785551058787959
aa(lp1140
F0.2849145299145299
aF0.2796262138631772
aa(lp1141
F0.2847990771005576
aF0.27660596906470586
aa(lp1142
F0.2854024829795755
aF0.28214480354611804
aa(lp1143
F0.2851638018200202
aF0.2841722505550872
aa(lp1144
F0.28456912991656735
aF0.28479759037458324
aa(lp1145
F0.28812381345439536
aF0.2873709711671331
aa(lp1146
F0.2838626506024096
aF0.28526940084954583
aa(lp1147
F0.28496500994035784
aF0.2867260541936499
aa(lp1148
F0.28360163828411294
aF0.29775540485184876
aa(lp1149
F0.28287806925498427
aF0.29363393241121494
aa(lp1150
F0.28984428274428276
aF0.29748619157735795
aa(lp1151
F0.2825238480194018
aF0.2923654323360617
aa(lp1152
F0.2834721820062048
aF0.2964653692161922
aa(lp1153
F0.2848978923675056
aF0.297859810396202
aa(lp1154
F0.2872646480534801
aF0.2928725597263303
aa(lp1155
F0.28793442292171106
aF0.30028275329231485
aa(lp1156
F0.27990196078431373
aF0.29589522196477896
aa(lp1157
F0.2806526682560059
aF0.2903754255714536
aa(lp1158
F0.2851111346765641
aF0.30718469516956926
aa(lp1159
F0.28428485110056106
aF0.31133034071264415
aa(lp1160
F0.2831306237774397
aF0.31288313226420283
aa(lp1161
F0.2842383962077819
aF0.3024347320309563
aa(lp1162
F0.28415500515995873
aF0.3095091371590758
aa(lp1163
F0.289143237704918
aF0.30982135722290316
aa(lp1164
F0.281367258382643
aF0.3051857934882115
aa(lp1165
F0.28636603696932766
aF0.311858301547488
aa(lp1166
F0.2824867054424595
aF0.3153165241777216
aa(lp1167
F0.28825513324595897
aF0.3234237485533963
aa(lp1168
F0.28274296476844674
aF0.324588739327767
aa(lp1169
F0.28654700674536254
aF0.32125003563063315
aa(lp1170
F0.2900765508139024
aF0.32855935272656
aa(lp1171
F0.28283374203040706
aF0.3443034122048431
aa(lp1172
F0.28979846398305087
aF0.3556876863674108
aa(lp1173
F0.2860176322418136
aF0.3366156626800095
aa(lp1174
F0.28373768085552525
aF0.3275177414756054
aa(lp1175
F0.28460700132100397
aF0.3329230354331017
aa(lp1176
F0.2845433906216847
aF0.33035280228319847
aa(lp1177
F0.2846126566149926
aF0.330814354440685
aa(lp1178
F0.28694291295854135
aF0.33747495299095276
aa(lp1179
F0.2856649519123239
aF0.3420514588031212
aa(lp1180
F0.28603559027777775
aF0.3389907434590207
aa(lp1181
F0.2858829074151655
aF0.334782001906608
aa(lp1182
F0.28960621645796064
aF0.3455269977638052
aa(lp1183
F0.27917078702653664
aF0.3477165075174446
aa(lp1184
F0.28863784778109913
aF0.3526166149535116
aa(lp1185
F0.287666967712802
aF0.3531026954015774
aa(lp1186
F0.2860945317688731
aF0.34844581115511264
aa(lp1187
F0.2911044121044121
aF0.35805753056653994
aa(lp1188
F0.30003059026281775
aF0.353652110204319
aa(lp1189
F0.3067513028976444
aF0.34985993989694636
aa(lp1190
F0.2936703442188879
aF0.35576106448295375
aa(lp1191
F0.2896874058127018
aF0.35314043175164
aa(lp1192
F0.288376202769303
aF0.3678016050057782
aa(lp1193
F0.28838903985507247
aF0.3633524586439609
aa(lp1194
F0.28881119851920406
aF0.36792224771079385
aa(lp1195
F0.28615494319555235
aF0.37562135552656484
aa(lp1196
F0.2879517482517483
aF0.371264352137501
aa(lp1197
F0.2879215231019271
aF0.37314942219621783
aa(lp1198
F0.28706325301204816
aF0.37248354664586675
aa(lp1199
F0.2859378999762977
aF0.3783262895291995
aa(lp1200
F0.2878025239541949
aF0.37748905043820047
aa(lp1201
F0.2902945035059941
aF0.3747375904074101
aa(lp1202
F0.28928801169590646
aF0.3872601779461763
aa(lp1203
F0.28756162361623616
aF0.3894009029165766
aa(lp1204
F0.2875171580473659
aF0.38767856951506485
aa(lp1205
F0.2821918215613383
aF0.3927640693369871
aa(lp1206
F0.2863053817271589
aF0.3975312509750975
aa(lp1207
F0.2859061728395062
aF0.39563695571509466
aa(lp1208
F0.29320778894472366
aF0.40159146559925424
aa(lp1209
F0.28817705487956297
aF0.4006216098851539
aa(lp1210
F0.2930646215740508
aF0.40493686891278896
aaa(lp1211
F0.0
aF0.1
aF0.2
aF0.3
aF0.4
aF0.5
aF0.6
aF0.7
aF0.8
aF0.9
aF1.0
aF1.1
aF1.2
aF1.3
aF1.4
aF1.5
aF1.6
aF1.7
aF1.8
aF1.9
aF2.0
aF2.1
aF2.2
aF2.3
aF2.4
aF2.5
aF2.6
aF2.7
aF2.8
aF2.9
aF3.0
aF3.1
aF3.2
aF3.3
aF3.4
aF3.5
aF3.6
aF3.7
aF3.8
aF3.9
aF4.0
aF4.1
aF4.2
aF4.3
aF4.4
aF4.5
aF4.6
aF4.7
aF4.8
aF4.9
aF5.0
aF5.1
aF5.2
aF5.3
aF5.4
aF5.5
aF5.6
aF5.7
aF5.8
aF5.9
aF6.0
aF6.1
aF6.2
aF6.3
aF6.4
aF6.5
aF6.6
aF6.7
aF6.8
aF6.9
aF7.0
aF7.1
aF7.2
aF7.3
aF7.4
aF7.5
aF7.6
aF7.7
aF7.8
aF7.9
aF8.0
aF8.1
aF8.2
aF8.3
aF8.4
aF8.5
aF8.6
aF8.7
aF8.8
aF8.9
aF9.0
aF9.1
aF9.2
aF9.3
aF9.4
aF9.5
aF9.6
aF9.7
aF9.8
aF9.9
aF10.0
aF10.1
aF10.2
aF10.3
aF10.4
aF10.5
aF10.6
aF10.7
aF10.8
aF10.9
aF11.0
aF11.1
aF11.2
aF11.3
aF11.4
aF11.5
aF11.6
aF11.7
aF11.8
aF11.9
aF12.0
aF12.1
aF12.2
aF12.3
aF12.4
aF12.5
aF12.6
aF12.7
aF12.8
aF12.9
aF13.0
aF13.1
aF13.2
aF13.3
aF13.4
aF13.5
aF13.6
aF13.7
aF13.8
aF13.9
aF14.0
aF14.1
aF14.2
aF14.3
aF14.4
aF14.5
aF14.6
aF14.7
aF14.8
aF14.9
aF15.0
aF15.1
aF15.2
aF15.3
aF15.4
aF15.5
aF15.6
aF15.7
aF15.8
aF15.9
aF16.0
aF16.1
aF16.2
aF16.3
aF16.4
aF16.5
aF16.6
aF16.7
aF16.8
aF16.9
aF17.0
aF17.1
aF17.2
aF17.3
aF17.4
aF17.5
aF17.6
aF17.7
aF17.8
aF17.9
aF18.0
aF18.1
aF18.2
aF18.3
aF18.4
aF18.5
aF18.6
aF18.7
aF18.8
aF18.9
aF19.0
aF19.1
aF19.2
aF19.3
aF19.4
aF19.5
aF19.6
aF19.7
aF19.8
aF19.9
aF20.0
aF20.1
aF20.2
aF20.3
aF20.4
aF20.5
aF20.6
aF20.7
aF20.8
aF20.9
aF21.0
aF21.1
aF21.2
aF21.3
aF21.4
aF21.5
aF21.6
aF21.7
aF21.8
aF21.9
aF22.0
aF22.1
aF22.2
aF22.3
aF22.4
aF22.5
aF22.6
aF22.7
aF22.8
aF22.9
aF23.0
aF23.1
aF23.2
aF23.3
aF23.4
aF23.5
aF23.6
aF23.7
aF23.8
aF23.9
aa(lp1212
(lp1213
F0.2840892426435118
aF0.14897714721050404
aa(lp1214
F0.28442722539052817
aF0.15037371673660788
aa(lp1215
F0.2836002986560478
aF0.15236556743181975
aa(lp1216
F0.28657680798004986
aF0.15409534747852657
aa(lp1217
F0.2860925456389452
aF0.15241292106958376
aa(lp1218
F0.27992149390243903
aF0.14881520630244785
aa(lp1219
F0.2805918771669143
aF0.15156242621367227
aa(lp1220
F0.28124182680309456
aF0.15002862654933735
aa(lp1221
F0.2827103154732098
aF0.15155036657020615
aa(lp1222
F0.2861695171026157
aF0.1535353062016467
aa(lp1223
F0.2864942148760331
aF0.151173465829704
aa(lp1224
F0.28381709145427286
aF0.15223592573195482
aa(lp1225
F0.2847553956834532
aF0.15009239075257047
aa(lp1226
F0.2812404137235116
aF0.14805572626095204
aa(lp1227
F0.284545362648471
aF0.154368720921171
aa(lp1228
F0.2845914792899408
aF0.15157437894190012
aa(lp1229
F0.2816125972762646
aF0.1556887850119962
aa(lp1230
F0.28152502429543247
aF0.15244941110390992
aa(lp1231
F0.28515458817709627
aF0.1554191045718168
aa(lp1232
F0.28640444444444446
aF0.15534284577433063
aa(lp1233
F0.28358954831932776
aF0.15335709161196756
aa(lp1234
F0.28962278978389
aF0.153896897703776
aa(lp1235
F0.2827313988095238
aF0.15746338452436237
aa(lp1236
F0.2860688830423344
aF0.1569014426896903
aa(lp1237
F0.28876609181442797
aF0.15639053194060387
aa(lp1238
F0.2850150645624103
aF0.15724437314161815
aa(lp1239
F0.27880727630285157
aF0.15167306189499588
aa(lp1240
F0.27866550116550115
aF0.15179528970840095
aa(lp1241
F0.2810497876356772
aF0.15377275002016128
aa(lp1242
F0.2839903774981495
aF0.1575178225431555
aa(lp1243
F0.2860509433962264
aF0.160203389390539
aa(lp1244
F0.28382235434007136
aF0.1589983979677205
aa(lp1245
F0.28725207296849087
aF0.1572808049637281
aa(lp1246
F0.2874731082654249
aF0.15921685276671627
aa(lp1247
F0.2841863658656204
aF0.1590312177599355
aa(lp1248
F0.2896010915994304
aF0.16040296872186388
aa(lp1249
F0.28201382256848456
aF0.1636112560216229
aa(lp1250
F0.2872650931677019
aF0.16489727369235216
aa(lp1251
F0.2814555049172463
aF0.15626922146351896
aa(lp1252
F0.28556580628673656
aF0.15950325921313255
aa(lp1253
F0.2846921743437345
aF0.16154418359410613
aa(lp1254
F0.2856627789046653
aF0.16142560073968346
aa(lp1255
F0.2980935340572557
aF0.16914213942772563
aa(lp1256
F0.28830932524639874
aF0.1661455951664076
aa(lp1257
F0.28856891109942134
aF0.16509756544411167
aa(lp1258
F0.2933886802575107
aF0.16732852557620614
aa(lp1259
F0.2905896805896806
aF0.16739394556552864
aa(lp1260
F0.2872299748813843
aF0.16988404303959836
aa(lp1261
F0.28385495971103086
aF0.16747219849169032
aa(lp1262
F0.2886008797653959
aF0.1723982133639007
aa(lp1263
F0.28766971490048415
aF0.1733434221391062
aa(lp1264
F0.2888493219487695
aF0.17490538411353682
aa(lp1265
F0.29448
aF0.1744355785679527
aa(lp1266
F0.29104186046511626
aF0.17410886769302017
aa(lp1267
F0.28858314917127076
aF0.17356838571123118
aa(lp1268
F0.28515944938342414
aF0.1760229273536351
aa(lp1269
F0.2884557268056815
aF0.17944995964928748
aa(lp1270
F0.2883946478006767
aF0.1810189863963461
aa(lp1271
F0.28758921815889027
aF0.18063180905338566
aa(lp1272
F0.2912960158050708
aF0.18763515013399648
aa(lp1273
F0.2861685321394308
aF0.18241023189798225
aa(lp1274
F0.2940389772372934
aF0.1872727070069767
aa(lp1275
F0.29441331617883565
aF0.18913480266906482
aa(lp1276
F0.29375735537190084
aF0.19360309749093116
aa(lp1277
F0.2917772954924875
aF0.19257750736968376
aa(lp1278
F0.2911933607118412
aF0.192791708445478
aa(lp1279
F0.2875271908555594
aF0.19075474671459772
aa(lp1280
F0.28844770017035776
aF0.19518345566159045
aa(lp1281
F0.2856826468602296
aF0.19267546044869874
aa(lp1282
F0.28519296336597755
aF0.1986739871561669
aa(lp1283
F0.28933160263066804
aF0.19939394351574904
aa(lp1284
F0.28668634812286686
aF0.19749843424916635
aa(lp1285
F0.2890114822546973
aF0.1987846808197407
aa(lp1286
F0.2904903708987161
aF0.20260305380206645
aa(lp1287
F0.2862130909090909
aF0.20228763087547347
aa(lp1288
F0.2826348233597693
aF0.20353357640484868
aa(lp1289
F0.2810413561847988
aF0.20454456778963548
aa(lp1290
F0.2873555555555556
aF0.2071920662171267
aa(lp1291
F0.2896629038536396
aF0.21292833875140602
aa(lp1292
F0.28434767441860465
aF0.21346841886670168
aa(lp1293
F0.2813204845814978
aF0.20773405377470447
aa(lp1294
F0.2826739469578783
aF0.21601290533445608
aa(lp1295
F0.2843991983967936
aF0.22118541935381283
aa(lp1296
F0.2843570172353148
aF0.2118619133121436
aa(lp1297
F0.2833354192740926
aF0.2062506098482287
aa(lp1298
F0.28268974042027195
aF0.20776012539981267
aa(lp1299
F0.28794458281444585
aF0.2144422648125711
aa(lp1300
F0.2802604884157796
aF0.2103471794028991
aa(lp1301
F0.28089677222898907
aF0.21187207705349861
aa(lp1302
F0.27765491591203106
aF0.21359472261894163
aa(lp1303
F0.28070090634441086
aF0.21137859879131865
aa(lp1304
F0.2762544585987261
aF0.21205198086607382
aa(lp1305
F0.28434538152610445
aF0.21813557086243443
aa(lp1306
F0.28538960225493265
aF0.2213379594032741
aa(lp1307
F0.2819277920410783
aF0.21898102027389402
aa(lp1308
F0.2807130654856058
aF0.22204743816227407
aa(lp1309
F0.28159948898115617
aF0.2244000433952211
aa(lp1310
F0.2834328214971209
aF0.22465757152966068
aa(lp1311
F0.2796383114806524
aF0.224254928976548
aa(lp1312
F0.2823693379790941
aF0.22658735193800017
aa(lp1313
F0.27586753561685357
aF0.22434049907424902
aa(lp1314
F0.27812434915773354
aF0.22727600176575627
aa(lp1315
F0.28401929769060424
aF0.2303989137075257
aa(lp1316
F0.27568517959553274
aF0.22694106941276004
aa(lp1317
F0.27935191424196015
aF0.22854664743165135
aa(lp1318
F0.2814317154054869
aF0.23083348858476604
aa(lp1319
F0.2795932926829268
aF0.23062114532776484
aa(lp1320
F0.2795612922705314
aF0.23291982458928143
aa(lp1321
F0.2755846750149076
aF0.23293137633604896
aa(lp1322
F0.27951406892190955
aF0.2395677546835191
aa(lp1323
F0.28234785036292576
aF0.2340484228142775
aa(lp1324
F0.2720182450043441
aF0.2340301118146315
aa(lp1325
F0.2844616473252194
aF0.23617916499251315
aa(lp1326
F0.2774445422535211
aF0.24023227772527989
aa(lp1327
F0.28205768081291094
aF0.24232781282642446
aa(lp1328
F0.2767113028953229
aF0.23798950646087777
aa(lp1329
F0.2775536542923434
aF0.2410533576374776
aa(lp1330
F0.279967069154775
aF0.24027811343265676
aa(lp1331
F0.2770894241417497
aF0.24229426238824725
aa(lp1332
F0.27768944273312796
aF0.24434201164191718
aa(lp1333
F0.2772725012431626
aF0.2349580940897194
aa(lp1334
F0.2783491335372069
aF0.23761491159296305
aa(lp1335
F0.27938269134567284
aF0.2380901600524382
aa(lp1336
F0.2780574018126888
aF0.24103743862214377
aa(lp1337
F0.2792415297741273
aF0.24523771586732113
aa(lp1338
F0.2834433962264151
aF0.24079161640217256
aa(lp1339
F0.28125641025641024
aF0.24576665757270885
aa(lp1340
F0.27602344139650875
aF0.24473776508417286
aa(lp1341
F0.2788165680473373
aF0.24315587793725002
aa(lp1342
F0.27900743863129185
aF0.24726871196509126
aa(lp1343
F0.27854648324828046
aF0.24092238281907777
aa(lp1344
F0.2794529147982063
aF0.2427220933545221
aa(lp1345
F0.27931683818699365
aF0.24194450469020887
aa(lp1346
F0.2784377777777778
aF0.24289254156452053
aa(lp1347
F0.2821150126156434
aF0.24215975559945388
aa(lp1348
F0.2793424280879865
aF0.24191302682336627
aa(lp1349
F0.28254957211438114
aF0.24487127374384218
aa(lp1350
F0.27826403673554584
aF0.24447240495323364
aa(lp1351
F0.28171526933981367
aF0.24412638789964278
aa(lp1352
F0.278956592956593
aF0.24587508287503515
aa(lp1353
F0.27839884715507623
aF0.23898047410317066
aa(lp1354
F0.2808851809954751
aF0.24093533602333592
aa(lp1355
F0.28098569794050343
aF0.2430722137005923
aa(lp1356
F0.2787998104265403
aF0.24368941741019262
aa(lp1357
F0.28288369419429005
aF0.24684637701380216
aa(lp1358
F0.28035738464279353
aF0.24107880498909293
aa(lp1359
F0.28463428149242703
aF0.244142615750857
aa(lp1360
F0.28415841236389183
aF0.2433556602182809
aa(lp1361
F0.2835143109540636
aF0.24355982468996468
aa(lp1362
F0.2837487115692198
aF0.24597497072017102
aa(lp1363
F0.28314572614107886
aF0.24136789175872822
aa(lp1364
F0.28203208020050125
aF0.243834056479055
aa(lp1365
F0.28686955085865257
aF0.24657519675351453
aa(lp1366
F0.28169111470113084
aF0.2401640628616401
aa(lp1367
F0.28426722408026756
aF0.24682701569626578
aa(lp1368
F0.28116933487374157
aF0.24564182855065772
aa(lp1369
F0.2832152789137903
aF0.24622646547282262
aa(lp1370
F0.2774397091155082
aF0.2488993276348365
aa(lp1371
F0.28285557704706643
aF0.24806553799206563
aa(lp1372
F0.2852849297367146
aF0.24658046866221503
aa(lp1373
F0.2807113650030066
aF0.24315717383909527
aa(lp1374
F0.2835593062867761
aF0.24681282547742017
aa(lp1375
F0.28422071574964525
aF0.249408187879474
aa(lp1376
F0.2805130156797077
aF0.24688291874691337
aa(lp1377
F0.281850603941513
aF0.2532257921126584
aa(lp1378
F0.2824261847389558
aF0.25518605111397424
aa(lp1379
F0.2853940012562814
aF0.2543741231157206
aa(lp1380
F0.28324307243558583
aF0.25796110400938693
aa(lp1381
F0.28315909455771393
aF0.25749013030118223
aa(lp1382
F0.2870320376556332
aF0.25514588029963003
aa(lp1383
F0.2806898944193062
aF0.2533455870685159
aa(lp1384
F0.27765172199813837
aF0.25552418176292935
aa(lp1385
F0.2811340808591283
aF0.2598397235006929
aa(lp1386
F0.27913603631809647
aF0.25966928623889957
aa(lp1387
F0.2793936170212766
aF0.26354671562793347
aa(lp1388
F0.27865258441350615
aF0.2636389135812148
aa(lp1389
F0.28043778207607994
aF0.2656940178799149
aa(lp1390
F0.28115275720164606
aF0.26676548232849645
aa(lp1391
F0.27873029690657547
aF0.2631330051503039
aa(lp1392
F0.28292349102773245
aF0.26836942571157696
aa(lp1393
F0.27818787214039487
aF0.26489543514285224
aa(lp1394
F0.2783464982411257
aF0.26958811098104885
aa(lp1395
F0.28615894476504533
aF0.27517687906503585
aa(lp1396
F0.2842810577082987
aF0.2774445665840742
aa(lp1397
F0.2807636820083682
aF0.27743039202108494
aa(lp1398
F0.2807401282483969
aF0.27833022301933363
aa(lp1399
F0.28391047416843596
aF0.2863139279110619
aa(lp1400
F0.27926819407008086
aF0.280647607991072
aa(lp1401
F0.28381434811827955
aF0.28126699499941177
aa(lp1402
F0.28294116635128164
aF0.2858602590928761
aa(lp1403
F0.27830975769482647
aF0.2809676144734685
aa(lp1404
F0.28230923763736265
aF0.28892772029827857
aa(lp1405
F0.2821364338424575
aF0.2880104327288182
aa(lp1406
F0.2836405537734256
aF0.2905573716916168
aa(lp1407
F0.28088339714584054
aF0.292956045404287
aa(lp1408
F0.27716486902927584
aF0.2910768128836103
aa(lp1409
F0.28038278931750743
aF0.2945653013337282
aa(lp1410
F0.2873540158566012
aF0.29530088986982256
aa(lp1411
F0.2805880341880342
aF0.2938843679763822
aa(lp1412
F0.28744743611730406
aF0.29914583593282196
aa(lp1413
F0.2802411033543334
aF0.2950593751144404
aa(lp1414
F0.2792500879971841
aF0.3018698972945411
aa(lp1415
F0.28816560728397184
aF0.3019353274880611
aa(lp1416
F0.2846134595874197
aF0.3003005508322285
aa(lp1417
F0.28881988423561455
aF0.30370599111237223
aa(lp1418
F0.27984478827361564
aF0.2977424038097787
aa(lp1419
F0.28304127897140924
aF0.30261449677691976
aa(lp1420
F0.2850130907854471
aF0.306348623856693
aa(lp1421
F0.28078746546961325
aF0.3069873940776768
aa(lp1422
F0.2842202772963605
aF0.3094180568305586
aa(lp1423
F0.2765737976782753
aF0.3043259841643341
aa(lp1424
F0.2791454385964912
aF0.3123162819658057
aa(lp1425
F0.2846847924596701
aF0.3183507572644516
aa(lp1426
F0.27902376307856
aF0.3153197661919665
aa(lp1427
F0.2861326197387518
aF0.3210703294052856
aa(lp1428
F0.2835947199429183
aF0.320794510221655
aa(lp1429
F0.2870981638418079
aF0.3213385130157669
aa(lp1430
F0.2945048060987736
aF0.31782026930391266
aa(lp1431
F0.300103355704698
aF0.32250931743283445
aa(lp1432
F0.2842682093492778
aF0.30793110792225536
aa(lp1433
F0.28534212208373283
aF0.3133447604015796
aa(lp1434
F0.2834952461799661
aF0.31970124297942615
aa(lp1435
F0.2830823731728289
aF0.322438936585668
aa(lp1436
F0.2886437289934548
aF0.3282030997359027
aa(lp1437
F0.2860556251117868
aF0.33167180625777526
aa(lp1438
F0.28448994452149795
aF0.32796517465397573
aa(lp1439
F0.2873916430594901
aF0.3310675863211491
aa(lp1440
F0.2836953818827709
aF0.3326753236271404
aa(lp1441
F0.28356794300979515
aF0.3340321208413702
aa(lp1442
F0.2849160444363504
aF0.3389199233503457
aa(lp1443
F0.288170405146931
aF0.33565856487571877
aa(lp1444
F0.28743232142857145
aF0.34028948896651706
aa(lp1445
F0.28484397677793905
aF0.3434338974530645
aa(lp1446
F0.29168991551321233
aF0.345845937463942
aa(lp1447
F0.2845538573508006
aF0.3470653744886136
aa(lp1448
F0.28337889688249396
aF0.34971313593268866
aa(lp1449
F0.28295061283345346
aF0.34634193973965643
aa(lp1450
F0.28850304259634885
aF0.3520800361342581
aa(lp1451
F0.28586267670277216
aF0.35238181311071665
aa(lp1452
F0.28188793440062476
aF0.36248537686720445
aaa(lp1453
F0.0
aF0.1
aF0.2
aF0.3
aF0.4
aF0.5
aF0.6
aF0.7
aF0.8
aF0.9
aF1.0
aF1.1
aF1.2
aF1.3
aF1.4
aF1.5
aF1.6
aF1.7
aF1.8
aF1.9
aF2.0
aF2.1
aF2.2
aF2.3
aF2.4
aF2.5
aF2.6
aF2.7
aF2.8
aF2.9
aF3.0
aF3.1
aF3.2
aF3.3
aF3.4
aF3.5
aF3.6
aF3.7
aF3.8
aF3.9
aF4.0
aF4.1
aF4.2
aF4.3
aF4.4
aF4.5
aF4.6
aF4.7
aF4.8
aF4.9
aF5.0
aF5.1
aF5.2
aF5.3
aF5.4
aF5.5
aF5.6
aF5.7
aF5.8
aF5.9
aF6.0
aF6.1
aF6.2
aF6.3
aF6.4
aF6.5
aF6.6
aF6.7
aF6.8
aF6.9
aF7.0
aF7.1
aF7.2
aF7.3
aF7.4
aF7.5
aF7.6
aF7.7
aF7.8
aF7.9
aF8.0
aF8.1
aF8.2
aF8.3
aF8.4
aF8.5
aF8.6
aF8.7
aF8.8
aF8.9
aF9.0
aF9.1
aF9.2
aF9.3
aF9.4
aF9.5
aF9.6
aF9.7
aF9.8
aF9.9
aF10.0
aF10.1
aF10.2
aF10.3
aF10.4
aF10.5
aF10.6
aF10.7
aF10.8
aF10.9
aF11.0
aF11.1
aF11.2
aF11.3
aF11.4
aF11.5
aF11.6
aF11.7
aF11.8
aF11.9
aF12.0
aF12.1
aF12.2
aF12.3
aF12.4
aF12.5
aF12.6
aF12.7
aF12.8
aF12.9
aF13.0
aF13.1
aF13.2
aF13.3
aF13.4
aF13.5
aF13.6
aF13.7
aF13.8
aF13.9
aF14.0
aF14.1
aF14.2
aF14.3
aF14.4
aF14.5
aF14.6
aF14.7
aF14.8
aF14.9
aF15.0
aF15.1
aF15.2
aF15.3
aF15.4
aF15.5
aF15.6
aF15.7
aF15.8
aF15.9
aF16.0
aF16.1
aF16.2
aF16.3
aF16.4
aF16.5
aF16.6
aF16.7
aF16.8
aF16.9
aF17.0
aF17.1
aF17.2
aF17.3
aF17.4
aF17.5
aF17.6
aF17.7
aF17.8
aF17.9
aF18.0
aF18.1
aF18.2
aF18.3
aF18.4
aF18.5
aF18.6
aF18.7
aF18.8
aF18.9
aF19.0
aF19.1
aF19.2
aF19.3
aF19.4
aF19.5
aF19.6
aF19.7
aF19.8
aF19.9
aF20.0
aF20.1
aF20.2
aF20.3
aF20.4
aF20.5
aF20.6
aF20.7
aF20.8
aF20.9
aF21.0
aF21.1
aF21.2
aF21.3
aF21.4
aF21.5
aF21.6
aF21.7
aF21.8
aF21.9
aF22.0
aF22.1
aF22.2
aF22.3
aF22.4
aF22.5
aF22.6
aF22.7
aF22.8
aF22.9
aF23.0
aF23.1
aF23.2
aF23.3
aF23.4
aF23.5
aF23.6
aF23.7
aF23.8
aF23.9
aa(lp1454
(lp1455
F0.28413321799307956
aF0.14873262173946764
aa(lp1456
F0.28230264150943396
aF0.14878889356620087
aa(lp1457
F0.2821268960414355
aF0.15202526626104626
aa(lp1458
F0.28118805019666604
aF0.14969024167311257
aa(lp1459
F0.28160255653883975
aF0.14968514803363064
aa(lp1460
F0.27517967711301045
aF0.1460408637861761
aa(lp1461
F0.28918392957482675
aF0.1554795379883655
aa(lp1462
F0.28161290322580645
aF0.15252116918868144
aa(lp1463
F0.28398635743519784
aF0.15079115015126587
aa(lp1464
F0.28465891472868216
aF0.1515014209090975
aa(lp1465
F0.2839263769201948
aF0.15293328074001175
aa(lp1466
F0.28071859785783837
aF0.15126839157670535
aa(lp1467
F0.27914512649539125
aF0.15066146075374492
aa(lp1468
F0.2837742873763816
aF0.1550056439764912
aa(lp1469
F0.28509403578528825
aF0.15205628054109818
aa(lp1470
F0.2808636536270414
aF0.15024720377379125
aa(lp1471
F0.2778733117747765
aF0.14899523300070178
aa(lp1472
F0.2817249228395062
aF0.1536737134781213
aa(lp1473
F0.27883893907361135
aF0.14832344551297214
aa(lp1474
F0.2810009637625289
aF0.15109005443412585
aa(lp1475
F0.2764708809436049
aF0.14978702170354502
aa(lp1476
F0.27909855127716354
aF0.14813117499221365
aa(lp1477
F0.2795544812197843
aF0.15038420236204145
aa(lp1478
F0.28604213536701617
aF0.15464066371974555
aa(lp1479
F0.28569929537231004
aF0.15430110834240265
aa(lp1480
F0.2838335185185185
aF0.15244618915449762
aa(lp1481
F0.278641278097715
aF0.15187139838598923
aa(lp1482
F0.287597141245063
aF0.15743143614725288
aa(lp1483
F0.28525041954130154
aF0.1554672354525088
aa(lp1484
F0.2851638376383764
aF0.15543557458596116
aa(lp1485
F0.2808914264999094
aF0.15424436737416317
aa(lp1486
F0.2865674444039373
aF0.15695803719882362
aa(lp1487
F0.28671835973904936
aF0.1578742747321926
aa(lp1488
F0.2832051868802441
aF0.15549703565730874
aa(lp1489
F0.2824433852140078
aF0.15827130718906054
aa(lp1490
F0.2854130996309963
aF0.1603977755619672
aa(lp1491
F0.283643614054657
aF0.15923536600442847
aa(lp1492
F0.2835111111111111
aF0.1593904920356537
aa(lp1493
F0.28651446321102697
aF0.15824549115341818
aa(lp1494
F0.2879929977289932
aF0.15981209670796423
aa(lp1495
F0.28846068222621185
aF0.16076660815149313
aa(lp1496
F0.29063369897500446
aF0.16327497376640254
aa(lp1497
F0.2916919333707655
aF0.16605139247355064
aa(lp1498
F0.28884497571908857
aF0.16180001362973448
aa(lp1499
F0.28684834410339255
aF0.16234775389450673
aa(lp1500
F0.283681782489203
aF0.16158345604397337
aa(lp1501
F0.2827850523771152
aF0.16336883088420004
aa(lp1502
F0.28679443892750744
aF0.16499096075954575
aa(lp1503
F0.28216272130495323
aF0.1624533058468664
aa(lp1504
F0.28891962774957697
aF0.16552080205380013
aa(lp1505
F0.28546292224665204
aF0.16771581838371985
aa(lp1506
F0.28697716150081565
aF0.16906474353346027
aa(lp1507
F0.28386527128632394
aF0.16589069258139447
aa(lp1508
F0.28447774842511686
aF0.1661218206969733
aa(lp1509
F0.28706691368788145
aF0.16901158589541784
aa(lp1510
F0.2845823708206687
aF0.16820806952906345
aa(lp1511
F0.28545578673602084
aF0.17187438665077506
aa(lp1512
F0.2854250053798149
aF0.16963407581005321
aa(lp1513
F0.28687856506238857
aF0.17664119455926483
aa(lp1514
F0.27966339570972154
aF0.17290075137552313
aa(lp1515
F0.2822463799438081
aF0.17015755467400837
aa(lp1516
F0.2854950608775557
aF0.17934651863440118
aa(lp1517
F0.2864202006383949
aF0.17560842893346462
aa(lp1518
F0.28222818311874104
aF0.17586274719203532
aa(lp1519
F0.28194757665677544
aF0.176036988281436
aa(lp1520
F0.28364750957854407
aF0.1801066704115382
aa(lp1521
F0.2875586721564591
aF0.18476111128336412
aa(lp1522
F0.28655533349987505
aF0.1819732383996631
aa(lp1523
F0.2794809706257982
aF0.1812724620601736
aa(lp1524
F0.28451216287678477
aF0.18492155562596
aa(lp1525
F0.2842914201183432
aF0.1851213149349912
aa(lp1526
F0.2848420375611011
aF0.18779200354579623
aa(lp1527
F0.28190162271805275
aF0.18642994455732595
aa(lp1528
F0.2872107778072737
aF0.1912182195799218
aa(lp1529
F0.28380010952902524
aF0.19088609425660444
aa(lp1530
F0.28275463080436436
aF0.18918892856714078
aa(lp1531
F0.28627382957224656
aF0.1971850403905599
aa(lp1532
F0.2856711937097927
aF0.20522841595782515
aa(lp1533
F0.28314665081252477
aF0.2114496879988181
aa(lp1534
F0.29076783648283844
aF0.21412546101436705
aa(lp1535
F0.28056921413121844
aF0.20675704082589474
aa(lp1536
F0.2835688836104513
aF0.2155675314134846
aa(lp1537
F0.28263155802861684
aF0.21621525193818508
aa(lp1538
F0.2778907103825137
aF0.21335971224533737
aa(lp1539
F0.2787758913412564
aF0.22644737269174234
aa(lp1540
F0.2754720447284345
aF0.21775128855841422
aa(lp1541
F0.2850131947221112
aF0.22715411382105688
aa(lp1542
F0.2853946957878315
aF0.22549753251521346
aa(lp1543
F0.2795888144938952
aF0.22414770431573122
aa(lp1544
F0.2847285067873303
aF0.22889250340051462
aa(lp1545
F0.2833620823620824
aF0.22965173834459504
aa(lp1546
F0.27964310679611654
aF0.22920538474803
aa(lp1547
F0.2810917695473251
aF0.2344567036300413
aa(lp1548
F0.27686803278688527
aF0.2350460559638744
aa(lp1549
F0.2782284424379232
aF0.24363602809548843
aa(lp1550
F0.28061342498989084
aF0.23671255802584726
aa(lp1551
F0.27914303691275166
aF0.24077653627687826
aa(lp1552
F0.28411424957841486
aF0.2442678643548082
aa(lp1553
F0.2801610711430855
aF0.24253746569638507
aa(lp1554
F0.28120406398616515
aF0.2509992880386987
aa(lp1555
F0.2781438010104936
aF0.24070949980124778
aa(lp1556
F0.28090008291873964
aF0.24932836443928863
aa(lp1557
F0.28326622017580577
aF0.25467071283956294
aa(lp1558
F0.27542953872196363
aF0.25277810953087004
aa(lp1559
F0.2811364785172704
aF0.25608237173401943
aa(lp1560
F0.2815440034512511
aF0.25862415010835654
aa(lp1561
F0.28273310521813516
aF0.2604221840231531
aa(lp1562
F0.27863088109495293
aF0.2614461382486426
aa(lp1563
F0.2848115463917526
aF0.25987623107392277
aa(lp1564
F0.2825844609340899
aF0.26590733225684404
aa(lp1565
F0.280016167192429
aF0.2602415539555231
aa(lp1566
F0.28065308544303796
aF0.26060683403426604
aa(lp1567
F0.2776091015169195
aF0.2592367637278766
aa(lp1568
F0.275476054031928
aF0.2661080871863827
aa(lp1569
F0.2804776839565742
aF0.271270137936163
aa(lp1570
F0.2806013250194856
aF0.26643647751734345
aa(lp1571
F0.282830658105939
aF0.2700683236759163
aa(lp1572
F0.2840384172109105
aF0.2711770385289259
aa(lp1573
F0.2789925636007828
aF0.2724135856593874
aa(lp1574
F0.2796733411857087
aF0.2749793152399748
aa(lp1575
F0.28196912704045424
aF0.266644806288522
aa(lp1576
F0.27722647702407
aF0.268229075700895
aa(lp1577
F0.28477391304347827
aF0.271728021683332
aa(lp1578
F0.28839448848622123
aF0.27982273113678674
aa(lp1579
F0.2835043227665706
aF0.27533815013223994
aa(lp1580
F0.2828394718554552
aF0.27388182112291587
aa(lp1581
F0.2748942028985507
aF0.2782160999998215
aa(lp1582
F0.2793846921797005
aF0.27257381590764634
aa(lp1583
F0.2768246396705559
aF0.2742611316713465
aa(lp1584
F0.27495637355146557
aF0.2758660036427867
aa(lp1585
F0.2813918037876436
aF0.26951197529462617
aa(lp1586
F0.28192704129152435
aF0.2723833352489401
aa(lp1587
F0.2795497316071992
aF0.2755016121890842
aa(lp1588
F0.276532065050629
aF0.27202191541772286
aa(lp1589
F0.28067779164067375
aF0.2767589353893878
aa(lp1590
F0.28134378596087456
aF0.2706742682174345
aa(lp1591
F0.28234497206703907
aF0.26807687245345324
aa(lp1592
F0.27764138331880267
aF0.27262887365801763
aa(lp1593
F0.2796617194063288
aF0.2710259165447976
aa(lp1594
F0.27856213176218536
aF0.26886858174091244
aa(lp1595
F0.2818846654517053
aF0.26695038255556264
aa(lp1596
F0.2810477467811159
aF0.2720550544341424
aa(lp1597
F0.2801769599193345
aF0.2662921076176678
aa(lp1598
F0.2756413404962906
aF0.26830945940840145
aa(lp1599
F0.2802859408033827
aF0.2737204633317307
aa(lp1600
F0.27789219143576827
aF0.27121960853504185
aa(lp1601
F0.28057545522574207
aF0.27236519739990495
aa(lp1602
F0.2809314475025484
aF0.27588963950034334
aa(lp1603
F0.2863447082096934
aF0.27391291193271944
aa(lp1604
F0.2746240358298084
aF0.2759520949645351
aa(lp1605
F0.2804292661361627
aF0.26343592397655335
aa(lp1606
F0.2785853881278539
aF0.26983944084034567
aa(lp1607
F0.2862500574580556
aF0.2725811244582358
aa(lp1608
F0.28047514450867056
aF0.2728161205947053
aa(lp1609
F0.2823052226995252
aF0.2712901784274665
aa(lp1610
F0.2810312648034107
aF0.27884078662641143
aa(lp1611
F0.28001692524682653
aF0.27784348864226316
aa(lp1612
F0.2816871600851265
aF0.2814109155403171
aa(lp1613
F0.2781669771774569
aF0.27947987666777085
aa(lp1614
F0.2832314318975553
aF0.28181479462852366
aa(lp1615
F0.27991797776379274
aF0.26988204123882825
aa(lp1616
F0.28199377362686234
aF0.2786559967988685
aa(lp1617
F0.2827786570201221
aF0.28240475566300505
aa(lp1618
F0.28110820021299254
aF0.27677986321046
aa(lp1619
F0.28165417676878995
aF0.28288479685196977
aa(lp1620
F0.27851691240242843
aF0.2806776876840395
aa(lp1621
F0.27830417317563044
aF0.2850549533532814
aa(lp1622
F0.2750469189189189
aF0.28225935903928323
aa(lp1623
F0.27816138140747176
aF0.28610678601385
aa(lp1624
F0.2788507950337617
aF0.2860766190750197
aa(lp1625
F0.2769674070998547
aF0.2821737207760824
aa(lp1626
F0.27401903955997464
aF0.28520232933804657
aa(lp1627
F0.2784767441860465
aF0.28796687943271126
aa(lp1628
F0.2820821541710665
aF0.2894216721638689
aa(lp1629
F0.28272768408062526
aF0.28833985491154346
aa(lp1630
F0.2792498943810731
aF0.2920306160398528
aa(lp1631
F0.2790861375661376
aF0.292773564128058
aa(lp1632
F0.2775529905561385
aF0.292224819378589
aa(lp1633
F0.28133672621520567
aF0.29476243032613436
aa(lp1634
F0.28121443647108485
aF0.2961070888921042
aa(lp1635
F0.2791639664259223
aF0.28851937130757666
aa(lp1636
F0.28046237231603083
aF0.2974489080321755
aa(lp1637
F0.2741364399664148
aF0.2984343072733433
aa(lp1638
F0.2828786078098472
aF0.302334328838664
aa(lp1639
F0.27399873684210524
aF0.30058327309153043
aa(lp1640
F0.2787004022866822
aF0.3048030349317535
aa(lp1641
F0.27980177140447066
aF0.306630767678689
aa(lp1642
F0.27964798255179935
aF0.3108501396215821
aa(lp1643
F0.28253984522066516
aF0.30763527271206853
aa(lp1644
F0.28121657810839534
aF0.31028574453642377
aa(lp1645
F0.28172551808208046
aF0.30629443161877484
aa(lp1646
F0.2794522537919248
aF0.3127779589731111
aa(lp1647
F0.2854484407484408
aF0.31319080691710827
aa(lp1648
F0.279576281916016
aF0.3141617190666416
aa(lp1649
F0.28163191489361705
aF0.3177267283898858
aa(lp1650
F0.27885446503791067
aF0.31745603970737557
aa(lp1651
F0.2814756594467081
aF0.320835376311785
aa(lp1652
F0.28015362574388364
aF0.32339138733272177
aa(lp1653
F0.28674955170352656
aF0.3143479843712958
aa(lp1654
F0.2823043922369765
aF0.3189515787936318
aa(lp1655
F0.2797494621552904
aF0.3128297152815098
aa(lp1656
F0.28011695661286945
aF0.32446056142459007
aa(lp1657
F0.2838014403292181
aF0.3249220158753127
aa(lp1658
F0.2828698249227601
aF0.3244188165742794
aa(lp1659
F0.2783074152542373
aF0.32876716904058856
aa(lp1660
F0.28020593769600666
aF0.32912733497039
aa(lp1661
F0.280725848003435
aF0.33336551122946356
aa(lp1662
F0.28058259251602236
aF0.3292835419570526
aa(lp1663
F0.28724763277068754
aF0.3317592487244661
aa(lp1664
F0.28434423514800244
aF0.33176044718149883
aa(lp1665
F0.2831259050683829
aF0.32966132569152584
aa(lp1666
F0.2876519967400163
aF0.3329016729696531
aa(lp1667
F0.2865689067201605
aF0.3311168865707997
aa(lp1668
F0.28133698518969363
aF0.33438969268229407
aa(lp1669
F0.2825604838709677
aF0.3418389915587199
aa(lp1670
F0.2833828559213339
aF0.34525282196754653
aa(lp1671
F0.2831265934065934
aF0.3511877535226259
aa(lp1672
F0.2786911017884743
aF0.3515008754906821
aa(lp1673
F0.2816922739244952
aF0.3527463760731222
aa(lp1674
F0.2840391099123399
aF0.35804119409854185
aa(lp1675
F0.2801726362625139
aF0.3568641466220026
aa(lp1676
F0.283311851688369
aF0.35749797398384353
aa(lp1677
F0.28125805719473446
aF0.3621299600498609
aa(lp1678
F0.28324223874070836
aF0.3575532206816608
aa(lp1679
F0.28720798319327734
aF0.370271875959149
aa(lp1680
F0.2807363218390804
aF0.3688330333922161
aa(lp1681
F0.27901495772815954
aF0.36041181573693176
aa(lp1682
F0.2851748948417091
aF0.3670088457750307
aa(lp1683
F0.2849001383763838
aF0.3741976877505506
aa(lp1684
F0.28775797629899724
aF0.3722568547900598
aa(lp1685
F0.28619157756927777
aF0.36733956515951127
aa(lp1686
F0.28440233100233103
aF0.3781712186832882
aa(lp1687
F0.277927542963307
aF0.37885015145499035
aa(lp1688
F0.2822144168962351
aF0.3793828784763076
aa(lp1689
F0.28818427865380086
aF0.3868831347576906
aa(lp1690
F0.282821327014218
aF0.38635091307671865
aa(lp1691
F0.27976443914081145
aF0.38911674240787064
aa(lp1692
F0.2775394767307247
aF0.38481297196808356
aa(lp1693
F0.2792351618705036
aF0.3838838261756468
aa(lp1694
F0.27485260511883003
aF0.38669664032832224
aaa.